(dp0
S'yvpdockedbgzindex0hlviewer'
p1
I1
sS'6px'
p2
I3
sS'foul'
p3
I1
sS'stencilstencilbasestencilstickerafappletsbaseafrapidhighlanderclient'
p4
I1
sS'windowperfBackfillAd'
p5
I1
sS'Does'
p6
I1
sS'Bdblrs0borderbottomleftradius0appletp63794'
p7
I1
sS'Bdt0bordertop0appletp63794'
p8
I1
sS'fireBeaconposition'
p9
I1
sS'FXpfMDIwNi4RlFCRPkZDYYi6MS4yMQAAAABbU5m5'
p10
I1
sS'TermsPrivacyAdvertiseAbout'
p11
I1
sS'votes'
p12
I3
sS'31px'
p13
I1
sS'arguments8'
p14
I1
sS'52rgba000085'
p15
I4
sS'M6margin6pxappletp63794'
p16
I1
sS'Pt12paddingtop12pxappletp63794'
p17
I1
sS'windowperformance'
p18
I10
sS'jslbnextDisabledhlviewer'
p19
I1
sS'arguments7'
p20
I1
sS'M20margin20pxappletp63794'
p21
I1
sS'regrets'
p22
I1
sS'Tactextaligncenterappletp63794'
p23
I1
sS'YMediaGlobalfirestreamsplashreplay'
p24
I2
sS'tl1slug'
p25
I1
sS'slsliderctbackgroundcolorrgba3333355borderradius10pxhlviewer'
p26
I1
sS'Cevents'
p27
I1
sS'continuereading'
p28
I1
sS'windowperfModalFetchEnd'
p29
I1
sS'streamv2'
p30
I52
sS'Creuset'
p31
I1
sS'ShareBtnpadding5pxborder1px'
p32
I1
sS'school'
p33
I1
sS'Ck2resrate100posLRECMASTFPADLREC2LREC3LREC0LREC20LREC30MAST0LDRB0SPL20SPL0MON0'
p34
I1
sS'slpicwidth52pxheight52pxhlviewer'
p35
I1
sS'Mx14marginright14pxmarginleft14pxappletp63794'
p36
I1
sS'RegExpsdtsde2elengthafexece1a2alengthba1bbparseIntnew'
p37
I1
sS'h6fontsize13pxfontsize13remHlViewer'
p38
I1
sS'curEvtproperty'
p39
I2
sS'jsstreamadfdbotherselected'
p40
I1
sS'Fzmfontsize15pxappletp63794'
p41
I1
sS'fontweight'
p42
I2
sS'Heartbreak'
p43
I1
sS'sourcehlviewer'
p44
I1
sS'Headlinelineheight12marginbottom12pxfontsize30pxfontsize3remhlviewer'
p45
I1
sS'Bdbrrs300borderbottomrightradius300pxappletp63794'
p46
I1
sS'nnlibmetrogmyymyymobile009js'
p47
I1
sS'leaders'
p48
I2
sS'httpssyimgcomzzcomboyui3180widgetbaseassetsskinssamwidgetbasecssyui3180autocompletelistassetsskinssamautocompletelistcss'
p49
I1
sS'iframebordernonehlviewer'
p50
I1
sS'Mtneg14margintop14pxappletp63794'
p51
I1
sS'rapidPageConfig'
p52
I1
sS'YUIaddloadertdappletstreamatomicfunctionetYUIEnveversionmodulesYUIEnveversionmodulesemixYUIEnveversionmodulesstreamactiondrawerv2grouptdappletstreamatomicrequiresafappletviewafcacheafeventafutilseventoutsidestencilfxstencilfxcollapsestreamneedtoknowanimgrouptdappletstreamatomicrequiresafappletviewafpagevizstreamonboardv2grouptdappletstreamatomicrequiresafappletviewstencilfxstencilfxcollapsetdappletcommentsmodelv2grouptdappletstreamatomicrequiresmjatamodelbaseafsynctdappletinterestmodelv2grouptdappletstreamatomicrequiresmjatamodelbaseafsynctdappletstreamappletmodelv2grouptdappletstreamatomicrequiresmjatamodelbaseafcookieafeventafutilsafappletmodelafbeaconafpolltdappletstreammodelv2tdappletstreamitemsmodelv2tdappletstreamatomictemplatesbreakingnewsgrouptdappletstreamatomicrequirestemplatebasedusttdappletstreamatomictemplatesdebuggrouptdappletstreamatomicrequirestemplatebasedusttdappletstreamatomictemplatesdraweractiongrouptdappletstreamatomicrequirestemplatebasedusttdappletstreamatomictemplatesdrawerdesktopgrouptdappletstreamatomicrequirestemplatebasedusttdappletstreamatomictemplatesdrawerflyoutgrouptdappletstreamatomicrequirestemplatebasedusttdappletstreamatomictemplatesdrawersharegrouptdappletstreamatomicrequirestemplatebasedusttdappletstreamatomictemplateserrormsggrouptdappletstreamatomicrequirestemplatebasedusttdappletstreamatomictemplatesitemadgrouptdappletstreamatomicrequirestemplatebasedusttdappletstreamatomictemplatesitemaddisliketdappletstreamatomictemplatesitemaddislikegrouptdappletstreamatomicrequirestemplatebasedusttdappletstreamatomictemplatesitemaddislikev2grouptdappletstreamatomicrequirestemplatebasedusttdappletstreamatomictemplatesitemadv2grouptdappletstreamatomicrequirestemplatebasedusttdappletstreamatomictemplatesitemaddislikev2tdappletstreamatomictemplatesitemcarouselgrouptdappletstreamatomicrequirestemplatebasedusttdappletstreamatomictemplatesitemdefaultgrouptdappletstreamatomicrequirestemplatebasedusttdappletstreamatomictemplatesitemplayicontdappletstreamatomictemplatesitemfollowabletdappletstreamatomictemplatesitemdefaultclustersgrouptdappletstreamatomicrequirestemplatebasedusttdappletstreamatomictemplatesitemplayicontdappletstreamatomictemplatesitemfollowabletdappletstreamatomictemplatesitemdefaultv2grouptdappletstreamatomicrequirestemplatebasedusttdappletstreamatomictemplatesitemplayicontdappletstreamatomictemplatesitemfollowabletdappletstreamatomictemplatesitemstorylineimagestdappletstreamatomictemplatesitemstorylinetdappletstreamatomictemplatesitemfeaturedadgrouptdappletstreamatomicrequirestemplatebasedusttdappletstreamatomictemplatesitemaddisliketdappletstreamatomictemplatesitemfeaturedadv2grouptdappletstreamatomicrequirestemplatebasedusttdappletstreamatomictemplatesitemaddislikev2tdappletstreamatomictemplatesitemfeaturedv2grouptdappletstreamatomicrequirestemplatebasedusttdappletstreamatomictemplatesitemplayicontdappletstreamatomictemplatesitemstorylinetdappletstreamatomictemplatesitemfilmstripgrouptdappletstreamatomicrequirestemplatebasedusttdappletstreamatomictemplatesitemfollowablegrouptdappletstreamatomicrequirestemplatebasedusttdappletstreamatomictemplatesitemgstilegrouptdappletstreamatomicrequirestemplatebasedusttdappletstreamatomictemplatesitemplayicontdappletstreamatomictemplatesiteminlinevideogrouptdappletstreamatomicrequirestemplatebasedusttdappletstreamatomictemplatesitemplayicontdappletstreamatomictemplatesiteminlinevideov2grouptdappletstreamatomicrequirestemplatebasedusttdappletstreamatomictemplatesitemplayicontdappletstreamatomictemplatesitemstorylineimagestdappletstreamatomictemplatesitemstorylinetdappletstreamatomictemplatesitemneedtoknowactionsgrouptdappletstreamatomicrequirestemplatebasedusttdappletstreamatomictemplatesitemntkactionsgrouptdappletstreamatomicrequirestemplatebasedusttdappletstreamatomictemplatesitemntkwidescreengrouptdappletstreamatomicrequirestemplatebasedusttdappletstreamatomictemplatesitemntkactionstdappletstreamatomictemplatesitemplayicongrouptdappletstreamatomicrequirestemplatebasedusttdappletstreamatomictemplatesitemrightmenugrouptdappletstreamatomicrequirestemplatebasedusttdappletstreamatomictemplatesitemrightmenufeaturedtdappletstreamatomictemplatesitemrightmenufeaturedgrouptdappletstreamatomicrequirestemplatebasedusttdappletstreamatomictemplatesitemplayicontdappletstreamatomictemplatesitemstorylinegrouptdappletstreamatomicrequirestemplatebasedusttdappletstreamatomictemplatesitemstorylineimagesgrouptdappletstreamatomicrequirestemplatebasedusttdappletstreamatomictemplatesitemstorylineupsellgrouptdappletstreamatomicrequirestemplatebasedusttdappletstreamatomictemplatesitems'
p53
I1
sS'lhRecordCOSTLYRESOURCE'
p54
I1
sS'nnlibmetrogmyyadvancedesktopviewer003js'
p55
I1
sS'hide'
p56
I1
sS'Samsung'
p57
I1
sS'P6padding6pxappletp63794'
p58
I1
sS'Mb16marginbottom16pxappletp63794'
p59
I1
sS'Amazon'
p60
I1
sS'College'
p61
I1
sS'Dtbfgdisplaytablefootergroupappletp63794'
p62
I1
sS'EditorialRightfloatrightmarginleft30pxContentBody'
p63
I1
sS'jsrelatedvideocontainer'
p64
I4
sS'Mt16margintop16pxappletp63794'
p65
I1
sS'webkitlineargradientright'
p66
I1
sS'error'
p67
I4
sS'My1margintop1pxmarginbottom1pxappletp63794'
p68
I1
sS'met'
p69
I1
sS'yui3aclistcontentbackgroundfffborder1px'
p70
I1
sS'FixedHeaderWrappositionfixedtop100pxwidth100zindex4height48pxbackgroundcolorfffmarginleft57pxborderbottom1px'
p71
I1
sS'path'
p72
I58
sS'100'
p73
I4
sS'Curry'
p74
I1
sS'107'
p75
I1
sS'afcontentafeventbaseeventsyntheticnodecorenodescrollinfo'
p76
I1
sS'Maw60maxwidth60appletp63794'
p77
I1
sS'daughter'
p78
I2
sS'Maw50maxwidth50appletp63794'
p79
I1
sS'ActionTooltiphide'
p80
I1
sS'Home'
p81
I1
sS'blockquotebeforecolorccccontentopenquotefontsize3emlineheight1emverticalalign4emHlViewer'
p82
I1
sS'Tenn'
p83
I1
sS'httpssyimgcomrqdarla299jsgrminjs'
p84
I1
sS'visible'
p85
I5
sS'blockquotelineheight16hlviewer'
p86
I1
sS'acolor020e65textdecorationnonehlviewer'
p87
I1
sS'Pstart10paddingleft10pxappletp63794'
p88
I1
sS'050'
p89
I1
sS'mastRotationEnabled'
p90
I1
sS'contentmodalborderbottom1px'
p91
I1
sS'Mawnmaxwidthnoneappletp63794'
p92
I1
sS'curAdclassName'
p93
I6
sS'jslbprevDisableddisplaynonehlviewer'
p94
I1
sS'nnlibmetrogpagenavpagenav0035js'
p95
I1
sS'ltime'
p96
I3
sS'minwidth1100pxjsheadersearchboxdisplayinlineblockPt35paddingtop35pxPt7paddingtop7pxJsEnabled'
p97
I1
sS'rapidSingleInstance'
p98
I1
sS'stencilstencilbasestencilstickerafappletsbaseafrapid'
p99
I1
sS'hlAdsAll'
p100
I1
sS'Mend30marginright30pxappletp63794'
p101
I1
sS'type'
p102
I4
sS'modfullpath'
p103
I1
sS'windowpageloadNonCollapsedAds'
p104
I1
sS'darlaFetchPerfpvid'
p105
I1
sS'mozlineargradientright'
p106
I1
sS'98'
p107
I15
sS'documentgetElementByIdmyadsLREC2fallback'
p108
I1
sS'mjatamodelbaseafappletcontentmodel'
p109
I1
sS'90'
p110
I1
sS'lookupTime'
p111
I1
sS'97'
p112
I1
sS'modalVideoInit'
p113
I3
sS'42xb0f'
p114
I1
sS'err'
p115
I4
sS'ShareBtnspositionrelativefloatrightmargintop5pxModalCreditmaxwidth200pxvideostagemarginright240pxvideosidestagewidth240pxNavStartdisplaynoneFirstItem'
p116
I1
sS'windowadPerfBeaconDataproperty'
p117
I4
sS'civilisations'
p118
I2
sS'worth'
p119
I1
sS'Fz3xsfontsize7pxappletp63794'
p120
I1
sS'afcontentafeventbaseeventcustomtypeabueventtypeabuvideonodecore'
p121
I1
sS'root'
p122
I2
sS'foequot'
p123
I1
sS'Le'
p124
I1
sS'typevideomanager'
p125
I1
sS'maxWidth'
p126
I2
sS'shoulderNo'
p127
I1
sS'Mathroundva'
p128
I1
sS'rgba000058boxshadow1px'
p129
I1
sS'nnlibmetrogsdasda0041js'
p130
I1
sS'sfhostgetMAST'
p131
I1
sS'Px30paddingright30pxpaddingleft30pxappletp63794'
p132
I1
sS'Mb12marginbottom12pxappletp63794'
p133
I1
sS'cites'
p134
I1
sS'absolute'
p135
I1
sS'yui'
p136
I1
sS'jsstreamupsellrightDisabled'
p137
I1
sS'Mx6marginright6pxmarginleft6pxappletp63794'
p138
I1
sS'ifMAST'
p139
I1
sS'Lh3lineheight3appletp63794'
p140
I1
sS'typepartnerwindowshadejs'
p141
I1
sS'Miranda'
p142
I1
sS'strmchevron'
p143
I3
sS'afappletdd'
p144
I1
sS'config'
p145
I1
sS'jsrelatedvideocontainersinglerightrailbordertopnonehlviewer'
p146
I1
sS'A'
p147
I2
sS'modlangBundlesExpanded'
p148
I2
sS'Pt6paddingtop6pxappletp63794'
p149
I1
sS'colorstop107rgba000085'
p150
I1
sS'ff9b00'
p151
I1
sS'destined'
p152
I1
sS'law'
p153
I2
sS'lesbian'
p154
I1
sS'windowLHbeacon'
p155
I1
sS'B75bottom75appletp63794'
p156
I1
sS'strmimggradient'
p157
I2
sS'ultramodern'
p158
I1
sS'bootstrap'
p159
I1
sS'windowFPADrendered'
p160
I1
sS'season'
p161
I1
sS'curAdclassNameindexOfDn'
p162
I1
sS'Lh02lineheight2appletp63794'
p163
I1
sS'athletes'
p164
I1
sS'alphaopacity1'
p165
I1
sS'Selected'
p166
I1
sS'YUIaddloaderapelocationfunctionetYUIEnveversionmodulesYUIEnveversionmodulesemixYUIEnveversionmodulesaflocationdetectiongroupapelocationlangBundlesstringsrequiresviewmjatamodelstoreafconfigafmessageaflocationsafutilsapelocationtemplateslocationdetectionaflocationpanelgroupapelocationlangBundlesstringsrequiresviewmjatamodelstoreafconfigafmessageaflocationsafutilsapelocationtemplateslocationlistapelocationtemplateslocationpanelstenciltogglestenciltooltipaflocationsgroupapelocationrequiresafsyncafutilsmjatamodelbasemjatamodelmjatalazymodellistmjatamodelstoreapelocationlangstringsgroupapelocationrequiresintlapelocationlangstringsargroupapelocationrequiresintlapelocationlangstringsarjogroupapelocationrequiresintlapelocationlangstringsdedegroupapelocationrequiresintlapelocationlangstringselgrgroupapelocationrequiresintlapelocationlangstringsenaegroupapelocationrequiresintlapelocationlangstringsenaugroupapelocationrequiresintlapelocationlangstringsencagroupapelocationrequiresintlapelocationlangstringsengbgroupapelocationrequiresintlapelocationlangstringseniegroupapelocationrequiresintlapelocationlangstringseningroupapelocationrequiresintlapelocationlangstringsenjogroupapelocationrequiresintlapelocationlangstringsenmygroupapelocationrequiresintlapelocationlangstringsennzgroupapelocationrequiresintlapelocationlangstringsenphgroupapelocationrequiresintlapelocationlangstringsensggroupapelocationrequiresintlapelocationlangstringsenusgroupapelocationrequiresintlapelocationlangstringsenzagroupapelocationrequiresintlapelocationlangstringsesargroupapelocationrequiresintlapelocationlangstringsesclgroupapelocationrequiresintlapelocationlangstringsescogroupapelocationrequiresintlapelocationlangstringsesesgroupapelocationrequiresintlapelocationlangstringsesmxgroupapelocationrequiresintlapelocationlangstringsespegroupapelocationrequiresintlapelocationlangstringsesusgroupapelocationrequiresintlapelocationlangstringsesvegroupapelocationrequiresintlapelocationlangstringsfrbegroupapelocationrequiresintlapelocationlangstringsfrcagroupapelocationrequiresintlapelocationlangstringsfrfrgroupapelocationrequiresintlapelocationlangstringsididgroupapelocationrequiresintlapelocationlangstringsititgroupapelocationrequiresintlapelocationlangstringsnlbegroupapelocationrequiresintlapelocationlangstringsnlnlgroupapelocationrequiresintlapelocationlangstringsptbrgroupapelocationrequiresintlapelocationlangstringsrorogroupapelocationrequiresintlapelocationlangstringssvsegroupapelocationrequiresintlapelocationlangstringsvivngroupapelocationrequiresintlapelocationlangstringszhhanthkgroupapelocationrequiresintlapelocationlangstringszhhanttwgroupapelocationrequiresintlapelocationtemplateslocationdetectiongroupapelocationrequirestemplatebasedustapelocationtemplateslocationlistgroupapelocationrequirestemplatebasedustapelocationtemplateslocationpanelgroupapelocationrequirestemplatebasedustVERSIONrequiresloaderbase'
p167
I1
sS'Ttutexttransformuppercaseappletp63794'
p168
I1
sS'nnlibmetrogmyyabuevent002js'
p169
I1
sS'Maw100maxwidth100appletp63794'
p170
I1
sS'rect1px'
p171
I1
sS'expansion'
p172
I1
sS'bodyTagclassNamereplacedata'
p173
I1
sS'Mx8marginright8pxmarginleft8pxappletp63794'
p174
I1
sS'jitterstagger'
p175
I1
sS'fix'
p176
I1
sS'production'
p177
I1
sS'Mx20marginright20pxmarginleft20pxappletp63794'
p178
I1
sS'400'
p179
I1
sS'hidden'
p180
I1
sS'spriteplayiconbackgroundposition162px'
p181
I1
sS'Bdblrsborderbottomleftradius3pxappletp63794'
p182
I1
sS'EmbedImgmarginbottom20pxhlviewer'
p183
I1
sS'Pb30paddingbottom30pxappletp63794'
p184
I1
sS'Mobile'
p185
I1
sS'ActionCommentshover'
p186
I2
sS'W10width10width96appletp63794'
p187
I1
sS'Mathroundltime'
p188
I2
sS'schools'
p189
I1
sS'stenciltogglestencilstencilstickerstencillightboxstencilbqueryafappletsapp'
p190
I1
sS'strmstretch'
p191
I1
sS'img1new'
p192
I1
sS'quotMade'
p193
I1
sS'quotshockquot'
p194
I1
sS'facStatus'
p195
I4
sS'Mstart8marginleft8pxappletp63794'
p196
I1
sS'arrested'
p197
I1
sS'Fw200fontweight200fontweightnormalappletp63794'
p198
I1
sS'Pstart20paddingleft20pxappletp63794'
p199
I1
sS'1x1'
p200
I5
sS'Wsnwebkitscrollbarwebkitappearancenoneappletp63794'
p201
I1
sS'Mih0minheight0appletp63794'
p202
I1
sS'NowHoliday'
p203
I1
sS'Ccicon'
p204
I2
sS'adexpanded'
p205
I2
sS'Py18paddingtop18pxpaddingbottom18pxappletp63794'
p206
I1
sS'M4margin4pxappletp63794'
p207
I1
sS'dynamicheightcontainerwidth100hlviewer'
p208
I1
sS'13px'
p209
I1
sS'About'
p210
I2
sS'YMediaconfigpatches'
p211
I2
sS'Py4paddingtop4pxpaddingbottom4pxappletp63794'
p212
I1
sS'Bdend0borderright0appletp63794'
p213
I1
sS'Tshntextshadownoneappletp63794'
p214
I1
sS'whitespace'
p215
I1
sS'Mstart60marginleft60pxappletp63794'
p216
I1
sS'gradient'
p217
I4
sS'uhsearchbox'
p218
I1
sS'content'
p219
I7
sS'c6d7ff'
p220
I1
sS'Cox'
p221
I1
sS'cscHTML'
p222
I4
sS'aftransport'
p223
I3
sS'afappletcontentmodelafappletcontentsettingsview'
p224
I2
sS'jsstreamcomment'
p225
I6
sS'quotpassivequot'
p226
I1
sS'slthumbwide'
p227
I4
sS'Work'
p228
I1
sS'YUIaddloadertdappletnavlinksatomicfunctionetYUIEnveversionmodulesYUIEnveversionmodulesemixYUIEnveversionmodulestdappletnavlinksatomictemplatesmaingrouptdappletnavlinksatomicrequirestemplatebasedusttdappletnavlinksmainviewgrouptdappletnavlinksatomicrequiresafappletviewVERSIONrequiresloaderbase'
p229
I1
sS'Py10paddingtop10pxpaddingbottom10pxappletp63794'
p230
I1
sS'245'
p231
I1
sS'YMediaMyAppgetRapidTracker'
p232
I2
sS'Treadmills'
p233
I1
sS'AFT'
p234
I1
sS'posItemmeta'
p235
I3
sS'Pb20paddingbottom20pxappletp63794'
p236
I1
sS'Clinton'
p237
I1
sS'0ff353c'
p238
I4
sS'colorstop0rgba0000'
p239
I2
sS'fdbintl'
p240
I4
sS'Curacursorautoimportantappletp63794'
p241
I1
sS'filter'
p242
I6
sS'prefetch'
p243
I1
sS'Girlfriend'
p244
I1
sS'Dndisplaynoneappletp63794'
p245
I1
sS'My14margintop14pxmarginbottom14pxappletp63794'
p246
I1
sS'h5fontsize14pxfontsize14remHlViewer'
p247
I1
sS'origWidth'
p248
I3
sS'200'
p249
I1
sS'POLITICO'
p250
I1
sS'paftercontentAwhitespacepreHlViewer'
p251
I1
sS'Bgocbbackgroundorigincontentboxappletp63794'
p252
I1
sS'Pstart1paddingleft1pxappletp63794'
p253
I1
sS'FacebookBtnhovercolor3b5998backgroundcolor4e91f2ShareBtns'
p254
I1
sS'h2fontsize17pxfontsize17remHlViewer'
p255
I1
sS'YUIaddloadertdappletsidekickfunctionetYUIEnveversionmodulesYUIEnveversionmodulesemixYUIEnveversionmodulestdappletsidekicktemplatescardJTCgrouptdappletsidekickrequirestemplatebasedusttdappletsidekicktemplatesflyoutgrouptdappletsidekickrequirestemplatebasedusttdappletsidekicktemplatesitemgrouptdappletsidekickrequirestemplatebasedusttdappletsidekicktemplatesmaingrouptdappletsidekickrequirestemplatebasedusttdappletsidekicktemplatescardJTCtdappletsidekicktemplatesthumbnailJTCtdappletsidekicktemplatesmegacardsatomictdappletsidekicktemplatesitemtdappletsidekicktemplatesmegacardsatomicgrouptdappletsidekickrequirestemplatebasedusttdappletsidekicktemplatesthumbnailJTCgrouptdappletsidekickrequirestemplatebasedusttdsidekickmainviewgrouptdappletsidekickrequiresafappletviewafconfigafeventstenciltdsidekickmodelgrouptdappletsidekickrequiresafsyncbasebuildmodelVERSIONrequiresloaderbase'
p256
I1
sS'jsstreamcommentsbuttonhStartaComments'
p257
I3
sS'windowperfMarkMODALVIDEOINIT'
p258
I1
sS'basketball'
p259
I1
sS'windowperformancemark'
p260
I2
sS'Px0paddingright0appletp63794'
p261
I1
sS'970'
p262
I1
sS'typemyymailappletmodel'
p263
I1
sS'jsstreamcmntdownhover'
p264
I1
sS'listen'
p265
I1
sS'Search'
p266
I1
sS'collapse'
p267
I2
sS'pondering'
p268
I1
sS'Pend2paddingright2pxappletp63794'
p269
I1
sS'jsstreamupsellright'
p270
I2
sS'pulse'
p271
I1
sS'ifnewWidth'
p272
I1
sS'Headlinetextshadow0'
p273
I1
sS'Miw15minwidth15appletp63794'
p274
I1
sS'distance'
p275
I1
sS'rapidInstancegetRefererSpaceid'
p276
I2
sS'enabled'
p277
I1
sS'project'
p278
I2
sS'don\xe2\x80\x99t'
p279
I1
sS'exwife'
p280
I1
sS'windowadPerfBeaconDatapositions'
p281
I2
sS'colorstop0e91857'
p282
I1
sS'comscorepush'
p283
I1
sS'splashclose'
p284
I1
sS'Miw70minwidth70appletp63794'
p285
I1
sS'Galaxy'
p286
I1
sS'Bdrs300borderradius300pxappletp63794'
p287
I1
sS'YMediaAfEventfiresidekickrefresh'
p288
I1
sS'Chicago'
p289
I1
sS'TroswebkittextrenderingoptimizeSpeedmoztextrenderingoptimizeSpeedmstextrenderingoptimizeSpeedotextrenderingoptimizeSpeedtextrenderingoptimizeSpeedappletp63794'
p290
I1
sS'Wpx1width1pxappletp63794'
p291
I1
sS'mind'
p292
I1
sS'agility'
p293
I1
sS'ifposInfo'
p294
I1
sS'Mxamarginrightautomarginleftautoappletp63794'
p295
I1
sS'Instead'
p296
I1
sS'regulate'
p297
I1
sS'tells'
p298
I1
sS'UHSearchUHColWrapmegauhwrappermyadsMASTbase'
p299
I1
sS'Mih50minheight50height50appletp63794'
p300
I1
sS'Usnwebkituserselectnonemozuserselectnonemsuserselectnoneuserselectnoneappletp63794'
p301
I1
sS'eventsyntheticnodescrollinfo'
p302
I1
sS'10080'
p303
I1
sS'windowbackfillVideoPlaybackStart'
p304
I1
sS'Fvnfontvariantnormalappletp63794'
p305
I1
sS'Patrick'
p306
I1
sS'afevent'
p307
I1
sS'datamodulesReportmoduleresources'
p308
I1
sS'typereco'
p309
I1
sS'rapidPageConfigrapidConfigkeysbh'
p310
I1
sS'Dtbhgdisplaytableheadergroupappletp63794'
p311
I1
sS'NeueHelveticaArialsansserifimportanthlviewer'
p312
I2
sS'Autocomplete'
p313
I1
sS'silencers'
p314
I2
sS'h4fontsize13pxfontsize13remmarginbottom0hlviewer'
p315
I1
sS'rmpTDYDBMdisplaynoneContentBody'
p316
I1
sS'rapidPageConfigrapidConfigkeysbw'
p317
I1
sS'nnlibmetrogwindowshadewindowshade004js'
p318
I1
sS'jslbnexthoverhlviewer'
p319
I2
sS'Mend4marginright4pxappletp63794'
p320
I1
sS'China'
p321
I2
sS'NeueHelveticaArialsansserifappletp63794'
p322
I1
sS'nnlibmetrogmyycontentdbmyycontentdb0054js'
p323
I1
sS'Kutcher'
p324
I2
sS'Mahnmaxheightnoneappletp63794'
p325
I1
sS'darlaFetchPerfmodalFetchEnd'
p326
I1
sS'YUIversion'
p327
I1
sS'elseThank'
p328
I1
sS'28yearold'
p329
I1
sS'P2padding2pxappletp63794'
p330
I1
sS'distances'
p331
I1
sS'H50height50appletp63794'
p332
I1
sS'Mah100maxheight100appletp63794'
p333
I1
sS'afappletcontentsettingsview'
p334
I1
sS'Mend14marginright14pxappletp63794'
p335
I1
sS'httpssyimgcomzzcombo'
p336
I2
sS'Kettler'
p337
I1
sS'radio'
p338
I1
sS'Mx10marginright10pxmarginleft10pxappletp63794'
p339
I1
sS'Russell'
p340
I1
sS'slcarmaskwidth300pxopacity1hlviewer'
p341
I1
sS'modalFetchEnd'
p342
I1
sS'YUIaddloadertdappletdiscussionfunctionetYUIEnveversionmodulesYUIEnveversionmodulesemixYUIEnveversionmodulestdappletdiscussionappletmodelgrouptdappletdiscussionrequiresmjatamodelbaseafeventafappletmodeltddiscussionmodeltdappletdiscussiontemplatescommentboxgrouptdappletdiscussionrequirestemplatebasedusttdappletdiscussiontemplatescommentscardgrouptdappletdiscussionrequirestemplatebasedusttdappletdiscussiontemplatesfootergrouptdappletdiscussionrequirestemplatebasedusttdappletdiscussiontemplatesmaingrouptdappletdiscussionrequirestemplatebasedusttdappletdiscussiontemplatesstorycardtdappletdiscussiontemplatesstorycardgrouptdappletdiscussionrequirestemplatebasedusttdappletdiscussiontemplatescommentscardtdappletdiscussiontemplatesfootertdappletdiscussiontemplatescommentboxtddiscussionmainviewgrouptdappletdiscussionrequiresafappletviewnodetddiscussionmodelgrouptdappletdiscussionrequiresmodelafsyncVERSIONrequiresloaderbase'
p343
I1
sS'Republicans'
p344
I1
sS'Ovsoverflowscrollappletp63794'
p345
I1
sS'LREC'
p346
I2
sS'10pxquotes201C'
p347
I1
sS'40xb0f'
p348
I1
sS'Mx1marginright1pxmarginleft1pxappletp63794'
p349
I1
sS'captionhlviewer'
p350
I2
sS'YUIapplyConfiggroupstddevinfocombinetruefiltermincomboSepcomboBasehttpssyimgcomzzcombobasehttpssyimgcomosmittdtddevinfo0030rootosmittdtddevinfo0030'
p351
I1
sS'curAdclassNamereplaceDib'
p352
I1
sS'Searches'
p353
I1
sS'Lh14lineheight14appletp63794'
p354
I1
sS'10pxjsheadersearchbox'
p355
I1
sS'psychiatric'
p356
I1
sS'Love'
p357
I1
sS'txtlindex'
p358
I2
sS'backfillVideoStart'
p359
I1
sS'Moore'
p360
I2
sS'windowAfcontextregion'
p361
I3
sS'yui3aclist'
p362
I1
sS'jsstreamadfdbreason'
p363
I2
sS'Mstartneg8marginleft8pxappletp63794'
p364
I1
sS'adPerfBeaconData'
p365
I1
sS'mozboxsizing'
p366
I1
sS'enUS'
p367
I3
sS'lbmetacontent'
p368
I1
sS'windowperfMarkADEND'
p369
I1
sS'yaftConfig'
p370
I1
sS'Burch'
p371
I1
sS'59'
p372
I1
sS'ViewerCloseBtnStickymarginleft19pxModalStickermaxwidth1180pxModalStickerStickydisplayblockimportantopacity1filteralphaopacity100ModalSticker'
p373
I1
sS'America39s'
p374
I1
sS'result'
p375
I1
sS'Bdy1bordertopwidth1pxborderbottomwidth1pxappletp63794'
p376
I1
sS'typeuhinit'
p377
I1
sS'sponsorSlugNode0className'
p378
I3
sS'bodyTagclassName'
p379
I6
sS'viewerendfocusoutline0hlviewer'
p380
I1
sS'Fighter'
p381
I2
sS'07'
p382
I1
sS'Ovxvoverflowxvisibleappletp63794'
p383
I1
sS'stealthy'
p384
I1
sS'h6fontsize19pxfontsize19remmarginbottom6emhlviewer'
p385
I1
sS'P0padding0appletp63794'
p386
I1
sS'MailBtnbackgroundposition1px'
p387
I1
sS'aactive'
p388
I1
sS'F0162F'
p389
I1
sS'T75top75appletp63794'
p390
I1
sS'Mb1marginbottom1pxappletp63794'
p391
I1
sS'overflow'
p392
I3
sS'My12margintop12pxmarginbottom12pxappletp63794'
p393
I1
sS'buyers'
p394
I1
sS'windowperfModalVideoInit'
p395
I1
sS'380'
p396
I1
sS'screenheight'
p397
I1
sS'yfppgcontrols'
p398
I1
sS'ff353c'
p399
I1
sS'backgroundcolor'
p400
I3
sS'Lh05lineheight5appletp63794'
p401
I1
sS'improve'
p402
I1
sS'limits'
p403
I1
sS'Clstartclearleftappletp63794'
p404
I1
sS'screenwidth'
p405
I1
sS'country'
p406
I1
sS'Obsolete'
p407
I1
sS'Covers'
p408
I1
sS'Miw20minwidth20appletp63794'
p409
I1
sS'boxsizing'
p410
I1
sS'posItemmetay'
p411
I2
sS'72pxHlViewerbackgroundfffHlViewer'
p412
I1
sS'height'
p413
I9
sS'10pxhlviewer'
p414
I1
sS'slcarmaskwidth150pxopacity5transitionheight'
p415
I1
sS'false'
p416
I18
sS'Mbneg20marginbottom20pxappletp63794'
p417
I1
sS'Lambert'
p418
I1
sS'impID'
p419
I4
sS'strmfull'
p420
I1
sS'Mb10marginbottom10pxappletp63794'
p421
I1
sS'rapidInstance'
p422
I10
sS'Lh25lineheight25appletp63794'
p423
I1
sS'36xb0f'
p424
I1
sS'Groups'
p425
I1
sS'bisexual'
p426
I1
sS'yui3aclistlist'
p427
I1
sS'Bdtlrs300bordertopleftradius300pxappletp63794'
p428
I1
sS'life'
p429
I3
sS'webkittransition'
p430
I1
sS'crying'
p431
I1
sS'Tatopautoimportantappletp63794'
p432
I1
sS'FfcfontfamilyMonotype'
p433
I1
sS'windowperfVideoInitBeacon'
p434
I3
sS'child'
p435
I3
sS'catch'
p436
I3
sS'typeadvancedesktop'
p437
I1
sS'Ashton39s'
p438
I1
sS'remainingbody'
p439
I6
sS'Taendtextalignrightappletp63794'
p440
I1
sS'International'
p441
I1
sS'nnlibmetrogmyyforeseeenusforeseetrigger004js'
p442
I1
sS'air'
p443
I1
sS'My20margintop20pxmarginbottom20pxappletp63794'
p444
I1
sS'typeof'
p445
I2
sS'Pb16paddingbottom16pxappletp63794'
p446
I1
sS'jsstreamrelateditemad'
p447
I1
sS'webkitanimationname'
p448
I3
sS'jsslideritemfirstmargintop25pximportantviewerright'
p449
I1
sS'Wpx14width14pxappletp63794'
p450
I1
sS'provocative'
p451
I1
sS'Maw35maxwidth35appletp63794'
p452
I1
sS'endColorstra6000000GradientType0'
p453
I2
sS'nnlibmetrogmyyabuvideomanager0020js'
p454
I1
sS'Bgobbbackgroundoriginborderboxappletp63794'
p455
I1
sS'Mens'
p456
I1
sS'jsstreamsparse'
p457
I6
sS'ie'
p458
I1
sS'id'
p459
I6
sS'D'
p460
I2
sS'fetchselectiveadubalrec2'
p461
I1
sS'yvpbottombar'
p462
I2
sS'EditorialLeftfloatleftmarginright30pxContentBody'
p463
I1
sS'Vasubverticalalignsubappletp63794'
p464
I1
sS'MathroundwindowperformancegetEntriesByNameMODALVIDEOINIT0startTime'
p465
I1
sS'508px'
p466
I1
sS'filtered'
p467
I1
sS'Bdrs100borderradius100pxappletp63794'
p468
I1
sS'customSiteAttrmegamodaltrue'
p469
I1
sS'forecastsafter'
p470
I2
sS'i0'
p471
I2
sS'Z3zindex3appletp63794'
p472
I1
sS'photocopyrightfontfamilyHelvetica'
p473
I1
sS'Dcpdisplaycompactappletp63794'
p474
I1
sS'rspt1vermegastrmsecuretruelangenUSrefhttpswwwyahoocomfilternoexpandabledarlaIDdarlainstance147984539900711647156500'
p475
I1
sS'labelAdChoicesurlhttpsinfoyahoocomprivacyusyahoorelevantadshtmlcloseClosecloseAdClose'
p476
I4
sS'Listdclzliststyletypedecimalleadingzeroappletp63794'
p477
I1
sS'Y'
p478
I4
sS'darla'
p479
I1
sS'kid'
p480
I2
sS'cscURI'
p481
I4
sS'kept'
p482
I1
sS'afappletbasemodel'
p483
I2
sS'ahoverhlviewer'
p484
I1
sS'abcdewindowfdocumentgfgetElementByIduhsearchboxhfunctionetrycekeyCodedetargetetargetesrcElementagvaluelengthdg0ac3240cgblurEMBEDdtagNameOBJECTdtagNameINPUTdtagNameTEXTAREAdtagNameealtKeyemetaKeyectrlKey32cc409c13c16c27cagsetSelectionRangegsetSelectionRangeaagcreateTextRangebgcreateTextRangebmoveStartcharacterabselectgfocuscatchegeaddEventListenereaddEventListenerkeydownh1eattachEventfattachEventonkeydownhsetTimeoutfunctiongfocus500'
p485
I1
sS'inherit'
p486
I2
sS'typeidletimer'
p487
I1
sS'functionvar'
p488
I2
sS'left'
p489
I10
sS'jsstreamroundupfilmstrip'
p490
I3
sS'Thank'
p491
I1
sS'splashConfclean'
p492
I1
sS'athletic'
p493
I1
sS'photo'
p494
I1
sS'LREC3'
p495
I1
sS'LREC2'
p496
I1
sS'LREC0'
p497
I1
sS'paddingright'
p498
I1
sS'jscstmendscreen'
p499
I4
sS'MathroundwindowperformancegetEntriesByNameMODALADWSEND0startTime'
p500
I1
sS'Whsnwwhitespacenowrapappletp63794'
p501
I1
sS'strmgstileroundup'
p502
I2
sS'afdomview'
p503
I1
sS'Miw60minwidth60appletp63794'
p504
I1
sS'ease'
p505
I4
sS'Lh11lineheight11appletp63794'
p506
I1
sS'windowYUIconfig'
p507
I1
sS'spread'
p508
I1
sS'Lh19lineheight19appletp63794'
p509
I1
sS'News'
p510
I1
sS'Maw10maxwidth10appletp63794'
p511
I1
sS'3px'
p512
I3
sS'M14margin14pxappletp63794'
p513
I1
sS'Mbneg18marginbottom18pxappletp63794'
p514
I1
sS'Housekeeping'
p515
I1
sS'Dubbed'
p516
I1
sS'safeframeOptinPositions'
p517
I1
sS'strmright'
p518
I4
sS'Hawking39s'
p519
I1
sS'F35'
p520
I2
sS'background'
p521
I36
sS'webkitgradientlinear'
p522
I4
sS'advanced'
p523
I1
sS'Mt1margintop1pxappletp63794'
p524
I1
sS'Trump'
p525
I2
sS'57'
p526
I1
sS'Bdtrrs300bordertoprightradius300pxappletp63794'
p527
I1
sS'52'
p528
I1
sS'lbmetacaptioncontainerwebkitfontsmoothingantialiasedhlviewer'
p529
I1
sS'W25'
p530
I1
sS'windowAfconfig'
p531
I1
sS'datahttpRequestsonloadCached'
p532
I1
sS'darlaPositionPerfplacementId'
p533
I1
sS'201'
p534
I5
sS'deal'
p535
I1
sS'Fwbrfontweightbolderappletp63794'
p536
I1
sS'whiteListedAds'
p537
I1
sS'cookware'
p538
I1
sS'viewerendheight1pxwidth1pxdisplayblockhlviewer'
p539
I1
sS'nnlibmetrogsignoutctasignoutcta009js'
p540
I1
sS'Unlike'
p541
I1
sS'Mstart2marginleft2pxappletp63794'
p542
I1
sS'Motley'
p543
I2
sS'res'
p544
I5
sS'Cheapest'
p545
I1
sS'h3fontsize16pxfontsize16remHlViewer'
p546
I1
sS'lhRecordSTR2'
p547
I1
sS'curAdclassNamereplaceDn'
p548
I1
sS'backgroundposition'
p549
I3
sS'track'
p550
I1
sS'Facebook'
p551
I2
sS'Lh23lineheight23appletp63794'
p552
I1
sS'darlaPositionPerfcreativeId'
p553
I1
sS'nnlibmetrogmyyaddtomy0021js'
p554
I1
sS'Lifestyle'
p555
I2
sS'bold'
p556
I1
sS'YUIaddloadermjatafunctionetYUIEnveversionmodulesYUIEnveversionmodulesemixYUIEnveversionmodulesmjatabindmodel2domgroupmjatarequiresmjatamodelstoremjatatemplatemjatautilnodebasenodecoremjatabindergroupmjatarequiresmjatabindmodel2dommjatajsongroupmjatamjatalazymodellistgroupmjatarequireslazymodellistmjatamodelstoremjatamodelgroupmjatarequiresmodelmjatajsonmjatamodelstoremjatamodelbasegroupmjatarequiresbasemjatamodelmjatamodellistmjatamodelstoremjatamodelstoregroupmjatarequireseventcustompromisemjatamodellistgroupmjatarequiresmodellistmjatamodelstoremjataqueuegroupmjatamjataresthttpgroupmjatarequiresjsonstringifyiobaseioxdrmjatastoregroupmjatarequiresmjataqueuemjatautilmjatatemplategroupmjatarequiresdustmjatautilgroupmjataVERSIONrequiresloaderbase'
p557
I1
sS'nodebaseeventbasepaneliobasejsonstringifyaftransport'
p558
I1
sS'post'
p559
I1
sS'0px'
p560
I2
sS'Think'
p561
I2
sS'easeinoutopacity0boxshadow0'
p562
I1
sS'Flendfloatrightdisplayinlineappletp63794'
p563
I1
sS'twittertweetrenderedmargin10px'
p564
I1
sS'Image'
p565
I1
sS'nnlibmetrogmyymyystubrapid004js'
p566
I1
sS'M2margin2pxappletp63794'
p567
I1
sS'darlaprefetch1479845399009702102481'
p568
I1
sS'httpssyimgcomnn'
p569
I1
sS'viewerwrapperbackgroundfffmargin0'
p570
I1
sS'newpureclientdarla'
p571
I1
sS'Brexit'
p572
I1
sS'Mtneg10margintop10pxappletp63794'
p573
I1
sS'statements'
p574
I1
sS'windowpendingAdsindexOfposId'
p575
I1
sS'presence'
p576
I1
sS'Make'
p577
I1
sS'DPbadetectpxgif'
p578
I1
sS'YUIaddloadertdlibsocialfunctionetYUIEnveversionmodulesYUIEnveversionmodulesemixYUIEnveversionmodulessocialsharinglibgrouptdlibsocialrequiresbasenodebaseeventbaseeventcustomstencillightboxstenciltooltiptdlibsocialtemplatesmtfgrouptdlibsocialrequirestemplatebasedusttdlibsocialtemplatesmtfstylestdlibsocialtemplatesmtfstylesgrouptdlibsocialrequirestemplatebasedusttdsocialemailautocompletegrouptdlibsocialrequiresautocompleteautocompletehighlightersiojsonlangnodebasenodecoreyqltdsocialmtfpopupgrouptdlibsocialrequiresbaseeventbaseioautosuggeststandaloneloaderautosuggestcomposeutilstdsocialemailautocompletenodebasegallerynodetokeninputVERSIONrequiresloaderbase'
p579
I1
sS'Op0opacity0filteralphaopacity0appletp63794'
p580
I1
sS'wrap'
p581
I1
sS'jsstreamcontentlinkfCmbluePolice'
p582
I1
sS'support'
p583
I1
sS'people'
p584
I2
sS'transform'
p585
I1
sS'GOP'
p586
I2
sS'width'
p587
I18
sS'slpicborder2px'
p588
I1
sS'LeadlCoverOverlaypositionabsolutecolorfffbackgroundurldataimagesvgxmlbase64PD94bWwgdmVyc2lvbj0iMS4wIiAPgo8c3ZnIHhtbG5zPSJod\xe2\x80\xa6EiIGhlaWdodD0iMSIgZmlsbD0idXJsKCNncmFkLXVjZ2ctZ2VuZXJhdGVkKSIgLz4KPC9zdmcbackgroundurldataimagesvgxmlbase64PD94bWwgdmVyc2lvbj0iMS4wIiBlbmNvZGluZz0idXRmLTgiPz4gPHN2ZyB2ZXJzaW9uPSIxLjEiIHhtbG5zPSJodHRwOi8vd3d3LnczLm9yZy8yMDAwL3N2ZyIPGRlZnMPGxpbmVhckdyYWRpZW50IGlkPSJncmFkIiBncmFkaWVudFVuaXRzPSJvYmplY3RCb3VuZGluZ0JveCIgeDE9IjAuNSIgeTE9IjAuMCIgeDI9IjAuNSIgeTI9IjEuMCIPHN0b3Agb2Zmc2V0PSIwJSIgc3RvcC1jb2xvcj0iIzAwMDAwMCIgc3RvcC1vcGFjaXR5PSIwLjAiLz48c3RvcCBvZmZzZXQ9IjEwMCUiIHN0b3AtY29sb3I9IiMwMDAwMDAiIHN0b3Atb3BhY2l0eT0iMC45NSIvPjwvbGluZWFyR3JhZGllbnQPC9kZWZzPjxyZWN0IHg9IjAiIHk9IjAiIHdpZHRoPSIxMDAlIiBoZWlnaHQ9IjEwMCUiIGZpbGw9InVybCgjZ3JhZCkiIC8PC9zdmcIAbackgroundwebkitgradientlinear50'
p589
I1
sS'call'
p590
I1
sS'perfMark'
p591
I1
sS'jsstreamcontentlinkfCmblueDriver'
p592
I1
sS'windowdaTRK'
p593
I1
sS'transparentbordertop6px'
p594
I1
sS'offer'
p595
I1
sS'documentcookieedsplit'
p596
I1
sS'Py16paddingtop16pxpaddingbottom16pxappletp63794'
p597
I1
sS'Mendneg20marginright20pxappletp63794'
p598
I1
sS'Mbneg6marginbottom6pxappletp63794'
p599
I1
sS'hear'
p600
I1
sS'Ttctexttransformcapitalizeappletp63794'
p601
I1
sS'heap'
p602
I1
sS'Peapointereventsautoappletp63794'
p603
I1
sS'32pxheight66pxwidth66pxmarginleft33pxmargintop33pxbackgroundrepeatnorepeathlviewer'
p604
I1
sS'DNY'
p605
I1
sS'ChungcheongnamDo'
p606
I1
sS'Minaj'
p607
I1
sS'slpicwidth22pxheight22pxborder2px'
p608
I1
sS'remainingbodyfontweight400fontsize15pxfontsize155remlineheight15fontfamilyHelvetica'
p609
I1
sS'fadeinopacity1hlviewer'
p610
I1
sS'nnlibmetrogmyymailmyymailappletmodel0016js'
p611
I1
sS'customReportModules'
p612
I1
sS'datapageLoadTime'
p613
I1
sS'windowperfMarkMODALFETCHSTART'
p614
I1
sS'validPositionsposition'
p615
I1
sS'rgba0002hlviewer'
p616
I1
sS'maxWaitTime'
p617
I1
sS'Mt70margintop70pxappletp63794'
p618
I1
sS'P30padding30pxappletp63794'
p619
I1
sS'2023538075'
p620
I2
sS'cosmos'
p621
I1
sS'lbmetatxtcontainer'
p622
I3
sS'YUIaddloadertddevinfofunctionetYUIEnveversionmodulesYUIEnveversionmodulesemixYUIEnveversionmodulestddevinfogrouptddevinforequiresoverlaynodecoretddevinfotemplatesperftddevinfotemplatesinitgrouptddevinforequirestemplatebasedusttddevinfotemplatesperfgrouptddevinforequirestemplatebasedustVERSIONrequiresloaderbase'
p623
I1
sS'nnlibmetrogmyyyahoodotcomclient0015js'
p624
I1
sS'expovr'
p625
I3
sS'Dtbrgdisplaytablerowgroupappletp63794'
p626
I1
sS'typemyystubrapid'
p627
I1
sS'windowYAFTtriggerCustomTimingwhiteListedAdsposId'
p628
I1
sS'sidekickfp'
p629
I1
sS'modalsidekickfollowing'
p630
I1
sS'jsstreamupsellrighthover'
p631
I1
sS'clearCustomEntries'
p632
I1
sS'discriminate'
p633
I1
sS'dotted'
p634
I1
sS'floor'
p635
I1
sS'Track'
p636
I1
sS'wwwyahoocom'
p637
I1
sS'Bd1borderwidth1pxappletp63794'
p638
I1
sS'Maw45maxwidth45appletp63794'
p639
I1
sS'handed'
p640
I1
sS'14px'
p641
I1
sS'transgender'
p642
I1
sS'Px2paddingright2pxpaddingleft2pxappletp63794'
p643
I1
sS'Dlidisplaylistitemappletp63794'
p644
I1
sS'EditorialRightmargintop0hlviewer'
p645
I1
sS'15s'
p646
I2
sS'jsrelatedvideocontainerbordertop1px'
p647
I1
sS'Mx0marginright0appletp63794'
p648
I1
sS'football'
p649
I2
sS'Costs'
p650
I1
sS'arrawborderleft5px'
p651
I1
sS'slidetitlefontweight700marginbottom4pxhlviewer'
p652
I1
sS'Invests'
p653
I1
sS'nnlibmetrogmyyrssmyyrss0013js'
p654
I1
sS'Pstart6paddingleft6pxappletp63794'
p655
I1
sS'darlainfo'
p656
I1
sS'ShareBtns'
p657
I3
sS'Vabverticalalignbottomappletp63794'
p658
I1
sS'useNormalizeCoverage'
p659
I2
sS'lbmetatxtcontainerfulldisplayblockSlideshowLightbox'
p660
I1
sS'bottom'
p661
I7
sS'modules'
p662
I2
sS'jsstreamcommenthiddennthoftype1n'
p663
I1
sS'splashConf'
p664
I2
sS'Second'
p665
I2
sS'domready'
p666
I1
sS'P12padding12pxappletp63794'
p667
I1
sS'figuremargin0hlviewer'
p668
I1
sS'jsstreamsidebuttonshascomments'
p669
I4
sS'Pt30paddingtop30pxappletp63794'
p670
I1
sS'91px'
p671
I1
sS'DategetTime1e3b604800cdocumentgetElementByIdmegatopffpromocclassNamecclassNamereplaceDng'
p672
I1
sS'functionmsgname'
p673
I1
sS'offensiveSomething'
p674
I1
sS'Today'
p675
I1
sS'darlaFetchPerfwsEnd'
p676
I1
sS'colorstop0ff7617'
p677
I1
sS'2shlviewer'
p678
I1
sS'YUIaddloaderapepipefunctionetYUIEnveversionmodulesYUIEnveversionmodulesemixYUIEnveversionmodulesafcometgroupapepiperequiresafbeaconafconfigcometeventcustombasejsonparseafpipegroupapepiperequiresafbeaconafcometafconfigafutilseventcustombasecometgroupapepipeVERSIONrequiresloaderbase'
p679
I1
sS'0'
p680
I69
sS'finally'
p681
I1
sS'ifposSize'
p682
I1
sS'jsstreamsidebuttons'
p683
I7
sS'Let'
p684
I1
sS'darlaFetchPerflang'
p685
I1
sS'nnlibmetrogpagenavchangelayout0040js'
p686
I1
sS'YUIaddloadertdappletmegaheaderfunctionetYUIEnveversionmodulesYUIEnveversionmodulesemixYUIEnveversionmodulesmegaheaderconstantsgrouptdappletmegaheadermegaheaderextensionhelpergrouptdappletmegaheaderrequiresnodeafeventmegaheadermenumixingrouptdappletmegaheaderrequiresnodeeventafeventmegaheaderconstantsmegaheaderpluginaccountswitchgrouptdappletmegaheaderrequiresnodeeventcustomeventmoveeventmouseentermegaheaderconstantsmegaheadermenumixingetanimjsonparseescapemegaheaderpluginautocompletegrouptdappletmegaheaderrequiresnodeautocompleteautocompletehighlightersautocompletelistmegaheaderconstantsmegaheaderpluginavatargrouptdappletmegaheaderrequiresjsonpmegaheaderconstantsmegaheaderpluginmailpreviewgrouptdappletmegaheaderrequiresjsonpafeventmegaheaderconstantsmegaheadermenumixinmegaheaderpluginnotificationsgrouptdappletmegaheaderrequiresafeventafcachemegaheaderconstantsmegaheadermenumixinmegaheaderextensionhelpermegaheaderpluginusernamegrouptdappletmegaheaderrequiresjsonptdappletmegaheadermainviewgrouptdappletmegaheaderrequiresafappletviewcookienodemegaheaderconstantsmegaheaderextensionhelpermegaheadermenumixinmegaheaderpluginautocompletemegaheaderpluginavatarmegaheaderpluginusernamemegaheaderpluginmailpreviewmegaheaderpluginnotificationsmegaheaderpluginaccountswitchtdappletmegaheadertemplatesaccountSwitchPanelgrouptdappletmegaheaderrequirestemplatebasedusttdappletmegaheadertemplatesbottombargrouptdappletmegaheaderrequirestemplatebasedusttdappletmegaheadertemplatesfirefoxPromoscriptgrouptdappletmegaheaderrequirestemplatebasedusttdappletmegaheadertemplateslogogrouptdappletmegaheaderrequirestemplatebasedusttdappletmegaheadertemplatesmailgrouptdappletmegaheaderrequirestemplatebasedusttdappletmegaheadertemplatesmailpreviewgrouptdappletmegaheaderrequirestemplatebasedusttdappletmegaheadertemplatesmaingrouptdappletmegaheaderrequirestemplatebasedusttdappletmegaheadertemplatestopbartdappletmegaheadertemplatespartnerLogotdappletmegaheadertemplateslogotdappletmegaheadertemplatesprofiletdappletmegaheadertemplatesnotificationstdappletmegaheadertemplatesmailtdappletmegaheadertemplatessearchtdappletmegaheadertemplatesbottombartdappletmegaheadertemplatesnotificationpanelgrouptdappletmegaheaderrequirestemplatebasedusttdappletmegaheadertemplatesnotificationsgrouptdappletmegaheaderrequirestemplatebasedusttdappletmegaheadertemplatespartnerLogogrouptdappletmegaheaderrequirestemplatebasedusttdappletmegaheadertemplatespartnerSubLogogrouptdappletmegaheaderrequirestemplatebasedusttdappletmegaheadertemplatesprofilegrouptdappletmegaheaderrequirestemplatebasedusttdappletmegaheadertemplatesaccountSwitchPaneltdappletmegaheadertemplatesprofilePaneltdappletmegaheadertemplatesprofilePanelgrouptdappletmegaheaderrequirestemplatebasedusttdappletmegaheadertemplatesscrollPromogrouptdappletmegaheaderrequirestemplatebasedusttdappletmegaheadertemplatessearchgrouptdappletmegaheaderrequirestemplatebasedusttdappletmegaheadertemplatessearchPromotdappletmegaheadertemplatespartnerSubLogotdappletmegaheadertemplatesscrollPromotdappletmegaheadertemplatessearchAutofocusscripttdappletmegaheadertemplatessearchAutofocusscriptgrouptdappletmegaheaderrequirestemplatebasedusttdappletmegaheadertemplatessearchPromogrouptdappletmegaheaderrequirestemplatebasedusttdappletmegaheadertemplatestopbargrouptdappletmegaheaderrequirestemplatebasedusttdappletmegaheadertemplatesfirefoxPromoscripttdmegaheadermodelgrouptdappletmegaheaderrequiresmodelafsyncVERSIONrequiresloaderbase'
p687
I1
sS'typevideostage'
p688
I1
sS'string'
p689
I1
sS'lbmetacontentborderbottom1px'
p690
I1
sS'NavNextFirstItem'
p691
I1
sS'Dtbdisplaytableappletp63794'
p692
I1
sS'slcarousel'
p693
I2
sS'YUIapplyConfiggroupsdusthelperscombinetruefiltermincomboSepcomboBasehttpssyimgcomzzcombobasehttpssyimgcomosmittddusthelpers00146rootosmittddusthelpers00146'
p694
I1
sS'Tech'
p695
I3
sS'uaie10'
p696
I4
sS'whenbeforeconfigFnfunction'
p697
I1
sS'YUIapplyConfiggroupsapelocationcombinetruefiltermincomboSepcomboBasehttpssyimgcomzzcombobasehttpssyimgcomosmittdapelocation109rootosmittdapelocation109'
p698
I1
sS'Just'
p699
I1
sS'ahover'
p700
I3
sS'Romanserifappletp63794'
p701
I1
sS'gun'
p702
I1
sS'daTrk'
p703
I2
sS'nnlibmetrogmyyadvertisement000js'
p704
I1
sS'C96989f'
p705
I2
sS'div'
p706
I3
sS'Mstartneg10marginleft10pxappletp63794'
p707
I1
sS'M0margin0appletp63794'
p708
I1
sS'Maw25maxwidth25appletp63794'
p709
I1
sS'prevent'
p710
I1
sS'nodeevent'
p711
I2
sS'NavPrevdisplaynoneslidenavarrowbackgroundcolor009bfbslidenavarrowhoveropacity1filteralphaopacity100modalsidekickmodalsidekickfollowingdisplayinlineblockjssidekickcontainerbordertop1px'
p712
I1
sS'Rep'
p713
I1
sS'MathroundwindowperformancegetEntriesByNamePSTMSGPBSTART0startTime'
p714
I1
sS'Mendneg12marginright12pxappletp63794'
p715
I1
sS'Stephen'
p716
I4
sS'Dridisplayruninappletp63794'
p717
I1
sS'targets'
p718
I1
sS'P14padding14pxappletp63794'
p719
I1
sS'inlineblock'
p720
I3
sS'H100height100appletp63794'
p721
I1
sS'Bxzbbwebkitboxsizingborderboxmozboxsizingborderboxboxsizingborderboxappletp63794'
p722
I1
sS'shares'
p723
I1
sS'Ford'
p724
I1
sS'300'
p725
I2
sS'Mend2marginright2pxappletp63794'
p726
I1
sS'MathroundwindowperformancegetEntriesByNamePSTMSGVIDSTART0startTime'
p727
I1
sS'rgba09301hlviewer'
p728
I1
sS'916100'
p729
I1
sS'alink'
p730
I1
sS'rgba2552552550005'
p731
I10
sS'yui3aclistitemactivebackground2647a0colorfffoutline0yui3cssstampskinsamautocompletelistdisplaynone'
p732
I1
sS'Mtneg40margintop40pxhlviewer'
p733
I1
sS'SidekickTVArrowborderbottom40px'
p734
I1
sS'kilometers'
p735
I2
sS'typeadvancedesktopviewer'
p736
I1
sS'margintop'
p737
I5
sS'YUIaddloadertdapplettrendingatomicfunctionetYUIEnveversionmodulesYUIEnveversionmodulesemixYUIEnveversionmodulestdapplettrendingatomicmainviewgrouptdapplettrendingatomicrequiresafappletviewnodetdapplettrendingatomictemplatesmaingrouptdapplettrendingatomicrequirestemplatebasedusttdapplettrendingatomictemplatespartialscategorizationheadertdapplettrendingatomictemplatespartialscategorizationbodytdapplettrendingatomictemplatespartialsinlinetrendingtdapplettrendingatomictemplatespartialscategorizationbodygrouptdapplettrendingatomicrequirestemplatebasedusttdapplettrendingatomictemplatespartialscategorizationheadergrouptdapplettrendingatomicrequirestemplatebasedusttdapplettrendingatomictemplatespartialsinlinetrendinggrouptdapplettrendingatomicrequirestemplatebasedustVERSIONrequiresloaderbase'
p738
I1
sS'6000'
p739
I1
sS'nnlibmetrogmyyafappletbaseview003js'
p740
I1
sS'Miw10minwidth10appletp63794'
p741
I1
sS'Your'
p742
I1
sS'usually'
p743
I1
sS'navigation'
p744
I1
sS'jsstreamdense'
p745
I5
sS'humour'
p746
I1
sS'ActionDislike'
p747
I1
sS'When'
p748
I1
sS'lineargradientto'
p749
I4
sS'Mtneg6margintop6pxappletp63794'
p750
I1
sS'Stealth'
p751
I1
sS'isModalOpen'
p752
I1
sS'daFr'
p753
I1
sS'nowrap'
p754
I1
sS'playbackStart'
p755
I3
sS'market'
p756
I1
sS'ContentBodyborderbottomnonehlviewer'
p757
I1
sS'Mend60marginright60pxappletp63794'
p758
I1
sS'windowaft2CB'
p759
I1
sS'sports'
p760
I1
sS'Fz2xsfontsize9pxappletp63794'
p761
I1
sS'tID'
p762
I1
sS'YUIaddloadertdappletrelatedcontentfunctionetYUIEnveversionmodulesYUIEnveversionmodulesemixYUIEnveversionmodulestdappletrelatedcontentmainviewgrouptdappletrelatedcontentrequiresafappletviewnodescrollinfoafbeacontdappletrelatedcontentmodelgrouptdappletrelatedcontentrequiresmodelafeventtdappletrelatedcontenttemplatesmaingrouptdappletrelatedcontentrequirestemplatebasedustVERSIONrequiresloaderbase'
p763
I1
sS'Bdclcbordercollapsecollapseappletp63794'
p764
I1
sS'Pb8paddingbottom8pxappletp63794'
p765
I1
sS'TumblrBtnhovercolor35506dbackgroundcolor3593d3ShareBtns'
p766
I1
sS'5px'
p767
I1
sS'Opera'
p768
I6
sS'YUIaddloaderstencilfunctionetYUIEnveversionmodulesYUIEnveversionmodulesemixYUIEnveversionmoduleshammergroupstencilstencilgroupstencilstencilbasegroupstencilrequiresstencilyuibaseeventbaseeventdelegateeventmouseenterjsonparsedombasenodebasenodepluginhostselectorstencilbquerygroupstencilrequiresstencilbaseyuibasedombasedomstylenodebasenodepluginhoststencilcarouselgroupstencilrequiresstencilbaseyuibasedombasenodebasenodestylenodepluginhosteventhoverstencilfxgroupstencilrequiresstencilbaseyuibasedombasenodebasepluginhosteventcustomselectorcss3stencilfxcollapsegroupstencilrequiresstencilfxnodestylestencilfxfadegroupstencilrequiresstenciltogglestencilfxstencilfxflipgroupstencilrequiresstenciltogglestencilfxstencilgallerygroupstencilrequiresstencilbaseyuibasedombasenodebasenodestylenodepluginhosttransitionstencilimageloadergroupstencilrequiresstencilbaseyuibasedombasedomscreennodebasenodescreennodestylenodepluginhostarrayextrasstencillightboxgroupstencilrequiresstencilbaseyuibasedombasedomscreennodebasenodepluginhostshimpluginstencilscrollviewgroupstencilrequiresnodebasenodestylehammerstencilselectboxgroupstencilrequiresstencilbasestencilslidergroupstencilrequiresstencilstencilsourcegroupstencilrequiresnodeooppluginhostmjatautilstencilsourceafgroupstencilrequiresnodestencilsourcemjatamodelstoremjatabindmodel2domafappletsstencilsourcedomgroupstencilrequiresstencilsourcestencilsourcermpgroupstencilrequiresstencilsourcestencilsourceurlmediarmpstencilsourcesimplegroupstencilrequiresstencilsourcestencilsourceurlgroupstencilrequiresstencilsourceiobaseioxdrstencilstickergroupstencilrequiresnodebasenodestylenodescreenstenciltabpanelgroupstencilrequiresstencilbaseyuibasedombasenodebasenodepluginhoststenciltogglegroupstencilrequiresstencilbaseyuibasedombasenodebasenodestylenodepluginhosteventfocuseventmouseenterjsonparsestenciltooltipgroupstencilrequiresstencilbaseyuibasedombasedomscreennodebasenodepluginhostnodestylestencilsourceVERSIONrequiresloaderbase'
p769
I1
sS'Start50left50appletp63794'
p770
I1
sS'ifmsgname'
p771
I4
sS'Lisinliststyleimagenoneappletp63794'
p772
I1
sS'hladLDRB0lineheight0ShareBtns'
p773
I1
sS'Mendneg10marginright10pxappletp63794'
p774
I1
sS'cExpiry'
p775
I1
sS'isNaNva'
p776
I1
sS'windowperfMarkADPARSE'
p777
I1
sS'unruly'
p778
I1
sS'Pb12paddingbottom12pxappletp63794'
p779
I1
sS'srchinputfocusbordercolor0179ffjsheadersearchbox'
p780
I1
sS'rect1px1px1px1px'
p781
I1
sS'7px'
p782
I1
sS'Bdx1borderrightwidth1pxborderleftwidth1pxappletp63794'
p783
I1
sS'expanding'
p784
I1
sS'Forbes'
p785
I1
sS'windowaddEventListenerload'
p786
I3
sS'stenciltogglestencilstencilstickerstencillightboxstencilbqueryafappletsappafrapidafeutracking'
p787
I1
sS'jsslideritemfirst'
p788
I1
sS'requirements'
p789
I1
sS'winter'
p790
I1
sS'windowLHtagbval'
p791
I1
sS'charset'
p792
I1
sS'nnlibmetrogmyyforeseeenusforeseealive004js'
p793
I1
sS'nnlibmetrogpagenavchangetheme0050js'
p794
I1
sS'1'
p795
I45
sS'Curdcursordefaultappletp63794'
p796
I1
sS'Mstartamarginleftautoappletp63794'
p797
I1
sS'Why'
p798
I1
sS'jsstreamcmntdownselected'
p799
I1
sS'adCallStart'
p800
I1
sS'Mend50marginright50pxappletp63794'
p801
I1
sS'lhRecordXFB1'
p802
I1
sS'windowAfcontextdevice'
p803
I3
sS'Pstart14paddingleft14pxappletp63794'
p804
I1
sS'slotData'
p805
I4
sS'designed'
p806
I1
sS'STR'
p807
I1
sS'windowLHisInitialized'
p808
I3
sS'revealed'
p809
I1
sS'lifting'
p810
I1
sS'FF36'
p811
I6
sS'comscore'
p812
I2
sS'afappletcontentmodel'
p813
I1
sS'clearTags'
p814
I1
sS'switch'
p815
I1
sS'sourcefontsize11pxfontsize11remcolorb2b2b2hlviewer'
p816
I1
sS'ViewerCloseBtnpositionfixedtop10pxwidth28pxheight28pxcolorfffbackgroundcolor2D1152fontsize16pxmarginleft11pxzindex5hlviewer'
p817
I1
sS'Providerletterspacing5pxJsEnabled'
p818
I1
sS'Lh1lineheight1appletp63794'
p819
I1
sS'h3HlViewer'
p820
I1
sS'185pxpadding5pxmarginleft40pxShareBtns'
p821
I1
sS'modalStartTime'
p822
I9
sS'cold'
p823
I1
sS'nnlibmetrogmyyidletimer001js'
p824
I1
sS'iconsslideshowiconleft5top5height46pxwidth47pxbackgroundsizecoverHlViewer'
p825
I1
sS'97rgba000065'
p826
I4
sS'functionposId'
p827
I1
sS'Assist'
p828
I1
sS'YUIapplyConfiggroupsmjatacombinetruefiltermincomboSepcomboBasehttpssyimgcomzzcombobasehttpssyimgcomosmittdmjata0435rootosmittdmjata0435'
p829
I1
sS'rapidCustomDatapushdarlaFetchPerf'
p830
I1
sS'window'
p831
I2
sS'offers'
p832
I1
sS'Curcrcursorcolresizeappletp63794'
p833
I1
sS'mail'
p834
I1
sS'DWL002'
p835
I1
sS'Grace'
p836
I1
sS'blockquote'
p837
I4
sS'TwitterBtnhovercolor00acedbackgroundcolor94e8ffShareBtns'
p838
I1
sS'yvpsettingbtndisplaynonehlviewer'
p839
I1
sS'answer'
p840
I1
sS'Miw45minwidth45appletp63794'
p841
I1
sS'Mstartneg6marginleft6pxappletp63794'
p842
I1
sS'curAdclassNamereplaceHtMAST'
p843
I1
sS'wont'
p844
I1
sS'name'
p845
I9
sS'OPEC'
p846
I1
sS'Skip'
p847
I3
sS'FPADtrue'
p848
I1
sS'You\xe2\x80\x99re'
p849
I1
sS'Simply'
p850
I1
sS'Skin'
p851
I1
sS'DARLAevtSettingseventName'
p852
I1
sS'Pend8paddingright8pxappletp63794'
p853
I1
sS'curAdparentElementgetElementsByClassNamecslug'
p854
I2
sS'el'
p855
I2
sS'Mt14margintop14pxappletp63794'
p856
I1
sS'facrt'
p857
I1
sS'T0top0appletp63794'
p858
I1
sS'paddingleft'
p859
I1
sS'consolelogfailed'
p860
I1
sS'webkitkeyframes'
p861
I3
sS'Op66opacity66filteralphaopacity66appletp63794'
p862
I1
sS'typeaddmodule'
p863
I1
sS'facCustomTimout'
p864
I1
sS'ContentBodyhlviewer'
p865
I1
sS'morning'
p866
I1
sS'ep'
p867
I1
sS'jsstreamcmntflagselected'
p868
I1
sS'nnlibmetrogmyyfeaturecue0014js'
p869
I1
sS'webkitlineargradientleft'
p870
I1
sS'B50bottom50appletp63794'
p871
I1
sS'Bgzcvbackgroundsizecoverbackgroundposition50'
p872
I1
sS'hastily'
p873
I1
sS'increase'
p874
I4
sS'perfData'
p875
I1
sS'modalStart'
p876
I8
sS'adsLearn'
p877
I1
sS'windowbackfillVideoStart'
p878
I1
sS'W90width90appletp63794'
p879
I1
sS'Mendamarginrightautoappletp63794'
p880
I1
sS'nnlibmetrogmyymyyscroller008js'
p881
I1
sS'lrecreservehtheight250pxhlviewer'
p882
I1
sS'Pregnant'
p883
I1
sS'nnlibmetrogmyyafappletdd004js'
p884
I1
sS'advantages'
p885
I1
sS'Mendneg16marginright16pxappletp63794'
p886
I1
sS'orb'
p887
I1
sS'care'
p888
I2
sS'posInfovalid'
p889
I2
sS'ContentColmarginleft150pxmarginright150pxhlviewerminheight500pxShareBtns'
p890
I1
sS'arcade'
p891
I1
sS'Z0zindex0appletp63794'
p892
I1
sS'colorstop97rgba000065'
p893
I1
sS'transition'
p894
I1
sS'Sign'
p895
I2
sS'Tumblr'
p896
I1
sS'alignrightfloatrightmargin0'
p897
I1
sS'modalpaddingenablemarginleft40pximportanthlviewer'
p898
I1
sS'nnlibmetrogmyymyy0042js'
p899
I2
sS'slv2carousel'
p900
I6
sS'B0bottom0appletp63794'
p901
I1
sS'Mend20marginright20pxappletp63794'
p902
I1
sS'feedbackpositionsDEFAULTsupportsfalseFPADLRECMASTTL1langenUS'
p903
I1
sS'B2B2B2marginright30pxmargintop40pxhlviewer'
p904
I1
sS'There'
p905
I1
sS'sourcefontsize14pxfontsize14remhlviewer'
p906
I1
sS'adcodeenus'
p907
I4
sS'Yconfiglang'
p908
I1
sS'geomupdate'
p909
I2
sS'Black'
p910
I1
sS'vote'
p911
I1
sS'Flickr'
p912
I1
sS'size'
p913
I9
sS'MathroundrtAdDone'
p914
I1
sS'divorcee'
p915
I1
sS'placementID'
p916
I4
sS'Monday'
p917
I1
sS'Bxshnboxshadownoneappletp63794'
p918
I1
sS'ContentBodypmarginbottom145emmargintop145emHlViewer'
p919
I1
sS'slideshowcarouselbackground212124paddingbottom66hlviewer'
p920
I1
sS'pgifbeaconTypedarlapos'
p921
I1
sS'W33width3333width33appletp63794'
p922
I1
sS'And'
p923
I1
sS'2'
p924
I5
sS'wDARLA'
p925
I1
sS'Date'
p926
I2
sS'Mb40marginbottom40pxappletp63794'
p927
I1
sS'friend'
p928
I1
sS'Wpx32width32pxappletp63794'
p929
I1
sS'W80width80appletp63794'
p930
I1
sS'Wawidthautoappletp63794'
p931
I1
sS'Pend0appletp63794'
p932
I1
sS'padding'
p933
I1
sS'indexcountbottominheritleftinheritcolor000positionrelativefontsize19pxfontsize19remfontweight500marginbottom8pxhlviewer'
p934
I1
sS'My8margintop8pxmarginbottom8pxappletp63794'
p935
I1
sS'Install'
p936
I1
sS'ifontstyleitalichlviewer'
p937
I1
sS'11'
p938
I1
sS'10'
p939
I2
sS'15'
p940
I1
sS'14'
p941
I1
sS'19'
p942
I8
sS'1AC567'
p943
I1
sS'darlaPositionPerfname'
p944
I1
sS'W60width60appletp63794'
p945
I1
sS'newsgrabbing'
p946
I1
sS'coats'
p947
I1
sS'typeabuvideomanager'
p948
I1
sS'UHmegauhmegatopbarappletpadnorthbasefeamyadsFPADbasemyadsLRECbasemyadsMASTmyadsTXTLcontentmodalhladLRECmodalsidekickhladLREC0hladMON0hladMAST0hladLDRB0hladSPL20hladSPL0'
p949
I1
sS'YMediaGlobalfirestreamsplashstart'
p950
I2
sS'jsslideritemlast'
p951
I1
sS'YUIaddloadertdappletweatheratomicfunctionetYUIEnveversionmodulesYUIEnveversionmodulesemixYUIEnveversionmodulestdappletweatheratomicappletmodelgrouptdappletweatheratomicrequiresmjatamodelbaseafappletmodelmjatamodelstoretdappletweatheratomicheaderviewgrouptdappletweatheratomicrequiresafappletviewmjatamodelstoretdappletweatheratomicliteviewgrouptdappletweatheratomicrequirestdappletweatheratomicmainviewtdappletweatheratomicmainviewgrouptdappletweatheratomicrequiresafappletviewafmessagestencilfxstencilfxcollapsetdappletweatheratomicmodelgrouptdappletweatheratomicrequiresmodelafsynctdappletweatheratomictemplatesheadergrouptdappletweatheratomicrequirestemplatebasedusttdappletweatheratomictemplatesheaderchicletgrouptdappletweatheratomicrequirestemplatebasedusttdappletweatheratomictemplatesheadererrorchicletgrouptdappletweatheratomicrequirestemplatebasedusttdappletweatheratomictemplateslistlitegrouptdappletweatheratomicrequirestemplatebasedusttdappletweatheratomictemplatesmaingrouptdappletweatheratomicrequirestemplatebasedusttdappletweatheratomictemplatesmainchicletgrouptdappletweatheratomicrequirestemplatebasedusttdappletweatheratomictemplatesmainerrorchicletgrouptdappletweatheratomicrequirestemplatebasedusttdappletweatheratomictemplatesmainerrorlitegrouptdappletweatheratomicrequirestemplatebasedusttdappletweatheratomictemplatesmainhovercardgrouptdappletweatheratomicrequirestemplatebasedusttdappletweatheratomictemplatesmainlitegrouptdappletweatheratomicrequirestemplatebasedusttdappletweatheratomictemplateslistliteVERSIONrequiresloaderbase'
p952
I1
sS'splashNodescrollIntoView'
p953
I2
sS'contentious'
p954
I1
sS'Lh06lineheight6appletp63794'
p955
I1
sS'margintop5px'
p956
I1
sS'mozlineargradienttop'
p957
I2
sS'Mstart40marginleft40pxappletp63794'
p958
I1
sS'ChromeSafari4'
p959
I4
sS'darlaFetchPerfspaceid'
p960
I1
sS'ahovercolor188fffhlviewer'
p961
I1
sS'Mail'
p962
I3
sS'fetchselectiveadubalrec3'
p963
I1
sS'Main'
p964
I1
sS'Tory'
p965
I1
sS'Dn'
p966
I1
sS'China39s'
p967
I1
sS'YMediaonesplashNodesetStylepaddingtop'
p968
I2
sS'typeaddtomy'
p969
I1
sS'P8padding8pxappletp63794'
p970
I1
sS'Vamverticalalignmiddleappletp63794'
p971
I1
sS'YMediaMyApp'
p972
I1
sS'functioneventName'
p973
I1
sS'equipment'
p974
I2
sS'animation'
p975
I1
sS'jsstreamadfdboptions'
p976
I1
sS'15px'
p977
I1
sS'relpublishercolor959595hlviewer'
p978
I1
sS'flInstalled1'
p979
I1
sS'Sean'
p980
I1
sS'Legislature'
p981
I1
sS'rapidEarlyConfig'
p982
I1
sS'slideshowcarousel'
p983
I1
sS'easeinouttop'
p984
I4
sS'normal'
p985
I1
sS'Lh13lineheight13appletp63794'
p986
I1
sS'price'
p987
I1
sS'sponsorSlugNode0classNamereplaceDn'
p988
I3
sS'afappletdomafmessageeventcustombase'
p989
I1
sS'Mstart50marginleft50appletp63794'
p990
I1
sS'especially'
p991
I1
sS'Mx16marginright16pxmarginleft16pxappletp63794'
p992
I1
sS'Audrey'
p993
I1
sS'h5hlviewer'
p994
I1
sS'lhRecordADSTARTFPAD'
p995
I1
sS'storylineimg1'
p996
I1
sS'storylineimg0'
p997
I1
sS'arrawbordertopcolor188FFFhlviewer'
p998
I1
sS'Ovvoverflowvisibleappletp63794'
p999
I1
sS'Trending'
p1000
I1
sS'0rgba255255255090'
p1001
I8
sS'surplus'
p1002
I1
sS'Maw80maxwidth80appletp63794'
p1003
I1
sS'Cmblue'
p1004
I4
sS'windowadPerfBeaconDatapvid'
p1005
I2
sS'000appletp63794'
p1006
I1
sS'typemyy'
p1007
I1
sS'Pend14paddingright14pxappletp63794'
p1008
I1
sS'40px'
p1009
I2
sS'We'
p1010
I1
sS'quotShamequot'
p1011
I1
sS'Bgopbbackgroundoriginpaddingboxappletp63794'
p1012
I1
sS'true'
p1013
I22
sS'Kansas'
p1014
I3
sS'Lockheed39s'
p1015
I1
sS'MathroundwindowperformancegetEntriesByNameMODALADWSSTART0startTime'
p1016
I1
sS'Fisher'
p1017
I1
sS'EmbedImgmarginbottom0hlviewer'
p1018
I1
sS'posted'
p1019
I2
sS'imagemarginbottom20pxdisplayblocklineheight1hlviewer'
p1020
I1
sS'nnlibmetrogmyymyyviewer0010js'
p1021
I1
sS'setTimeoutfunctionbeforeCheckcallbacktimeout2timeout2function'
p1022
I1
sS'pmargin0hlviewer'
p1023
I1
sS'documentcreateElementscript'
p1024
I1
sS'2812Start50'
p1025
I1
sS'Magazine'
p1026
I1
sS'Start10left10appletp63794'
p1027
I1
sS'Chanute'
p1028
I2
sS'splashstart'
p1029
I1
sS'W70width70appletp63794'
p1030
I1
sS'FfbfontfamilyHelveticaArialsansserifappletp63794'
p1031
I1
sS'jsstreamroundup'
p1032
I1
sS'Mt10margintop10pxappletp63794'
p1033
I1
sS'affordable'
p1034
I1
sS'typeabuvideo'
p1035
I1
sS'Ovysoverflowyscrollappletp63794'
p1036
I1
sS'college'
p1037
I2
sS'nnlibmetrogmyyvideostage008js'
p1038
I1
sS'slideshowv2'
p1039
I21
sS'sport'
p1040
I2
sS'Dtbclgdisplaytablecolumngroupappletp63794'
p1041
I1
sS'detect'
p1042
I1
sS'Shopping'
p1043
I3
sS'iconshareclosewidth30pxheight25pxbackgroundsizecoverbackgroundposition8px'
p1044
I1
sS'maxwidth'
p1045
I5
sS'federal'
p1046
I5
sS'posInfo'
p1047
I1
sS'3'
p1048
I2
sS'is3rd'
p1049
I4
sS'windowAf'
p1050
I1
sS'Overrides'
p1051
I1
sS'Mt2margintop2pxappletp63794'
p1052
I1
sS'YMediaconfigpatcheslength'
p1053
I1
sS'emitted'
p1054
I1
sS'15stransitionheight'
p1055
I1
sS'fdbon'
p1056
I4
sS'receivers'
p1057
I1
sS'screen'
p1058
I2
sS'stenciltogglestencilstencilstickerstencillightboxstencilbqueryafappletsappafrapid'
p1059
I1
sS'adLTpushADENDposId'
p1060
I1
sS'js'
p1061
I1
sS'LGBT'
p1062
I2
sS'Mih60minheight60height60appletp63794'
p1063
I1
sS'windowAfcontextrid'
p1064
I3
sS'B10bottom10appletp63794'
p1065
I1
sS'typemyyviewer'
p1066
I1
sS'Maw90maxwidth90appletp63794'
p1067
I1
sS'jsstreamcontentlinkbefore'
p1068
I1
sS'translateX50'
p1069
I3
sS'Py30paddingtop30pxpaddingbottom30pxappletp63794'
p1070
I1
sS'img'
p1071
I1
sS'000verticalalignmiddlehlviewer'
p1072
I1
sS'region'
p1073
I2
sS'rapidCustomData'
p1074
I2
sS'loadDefaultBundle'
p1075
I1
sS'setTimeoutfunction'
p1076
I3
sS'Escape'
p1077
I1
sS'mslineargradientright'
p1078
I1
sS'Ovyaoverflowyautoappletp63794'
p1079
I1
sS'expression'
p1080
I1
sS'Guess'
p1081
I1
sS'Jeremy'
p1082
I1
sS'color'
p1083
I11
sS'Mstartneg14marginleft14pxappletp63794'
p1084
I1
sS'darlaFetchPerfdevice'
p1085
I1
sS'pos'
p1086
I2
sS'Bdbborderbottomwidth1pxappletp63794'
p1087
I1
sS'29'
p1088
I1
sS'Note'
p1089
I1
sS'nnlibmetrogcustomizedbuttoncustomizedbutton009js'
p1090
I1
sS'olineargradient45deg'
p1091
I2
sS'65'
p1092
I10
sS'sfoptout'
p1093
I1
sS'27xb0f'
p1094
I1
sS'Riley'
p1095
I1
sS'Mend18marginright18pxappletp63794'
p1096
I1
sS'ddocumentElement'
p1097
I1
sS'Beauty'
p1098
I3
sS'optional'
p1099
I1
sS'Mb4marginbottom4pxappletp63794'
p1100
I1
sS'But'
p1101
I2
sS'mark'
p1102
I5
sS'jsstreamcontentlinkfCmblueCarrie'
p1103
I1
sS'Mah50maxheight50appletp63794'
p1104
I1
sS'concentrated'
p1105
I1
sS'shopping'
p1106
I1
sS'contentmodal'
p1107
I3
sS'documentbodyoffsetWidth'
p1108
I2
sS'Lh03lineheight3appletp63794'
p1109
I1
sS'windowperfMarkPSTMSG'
p1110
I1
sS'there39s'
p1111
I1
sS'centerpiece'
p1112
I1
sS'6s'
p1113
I6
sS'maxheight'
p1114
I5
sS'Learn'
p1115
I1
sS'YCookiesetthamba'
p1116
I1
sS'Pstart18paddingleft18pxappletp63794'
p1117
I1
sS'paying'
p1118
I1
sS'jsviewerslotreadMoredisplayinlineblockmarginright29pxverticalaligntophlviewer'
p1119
I1
sS'siteattributefdn1'
p1120
I1
sS'rapidCustomDatapushdarlaPositionPerf'
p1121
I1
sS'Mt20margintop20pxappletp63794'
p1122
I1
sS'fadeInNtk'
p1123
I4
sS'Babottomautoimportantappletp63794'
p1124
I1
sS'Mtneg12margintop12pxappletp63794'
p1125
I1
sS'Flnfloatnoneappletp63794'
p1126
I1
sS'margin'
p1127
I1
sS'Curnsrcursornsresizeappletp63794'
p1128
I1
sS'DSSfnew'
p1129
I1
sS'Mstart70marginleft70pxappletp63794'
p1130
I1
sS'jslbprevhovercolorfffhlviewer'
p1131
I1
sS'UBALREC2'
p1132
I1
sS'YUIapplyConfiggroupsapesocialcombinetruefiltermincomboSepcomboBasehttpssyimgcomzzcombobasehttpssyimgcomosmittdapesocial005rootosmittdapesocial005'
p1133
I1
sS'UBALREC3'
p1134
I1
sS'Looking'
p1135
I1
sS'middle'
p1136
I1
sS'201Clineheight18pxHlViewer'
p1137
I1
sS'Wood'
p1138
I1
sS'typeadvance'
p1139
I1
sS'loadergetRequires'
p1140
I2
sS'nnlibmetrogoptinoptin0033js'
p1141
I1
sS'darlaPositionPerfvalid'
p1142
I1
sS'Py14paddingtop14pxpaddingbottom14pxappletp63794'
p1143
I1
sS'technology'
p1144
I1
sS'darlaPositionPerf'
p1145
I1
sS'rapidPageConfigrapidEarlyConfigkeys'
p1146
I1
sS'Tshtextshadow0'
p1147
I1
sS'develop'
p1148
I1
sS'48px'
p1149
I1
sS'Pend12paddingright12pxappletp63794'
p1150
I1
sS'Tonka'
p1151
I1
sS'configurable'
p1152
I1
sS'jsstreamactions'
p1153
I5
sS'Haheightautoappletp63794'
p1154
I1
sS'html'
p1155
I4
sS'arguments'
p1156
I1
sS'alinkhlviewer'
p1157
I1
sS'Mtneg8margintop8pxappletp63794'
p1158
I1
sS'typesda'
p1159
I1
sS'HlViewer'
p1160
I1
sS'document'
p1161
I1
sS'documentgetElementByIdmyads'
p1162
I1
sS'newHeight'
p1163
I4
sS'generateHAR'
p1164
I1
sS'I'
p1165
I1
sS'Mstart1marginleft1pxappletp63794'
p1166
I1
sS'maincolpaddingtop20pxpaddingbottom60pxhlviewer'
p1167
I1
sS'MailBtnhovercolor0a80e3backgroundcolor94e8ffShareBtns'
p1168
I1
sS'nnlibmetrogmyyafappletcontentmodel003js'
p1169
I1
sS'afcontentafeventbaseeventcustomtypeabueventnodecore'
p1170
I1
sS'Z1zindex1appletp63794'
p1171
I1
sS'colorstop98rgba000065'
p1172
I1
sS'undefined'
p1173
I5
sS'My0margintop0appletp63794'
p1174
I1
sS'Is'
p1175
I1
sS'adcollapseCollapsefdbI'
p1176
I4
sS'It'
p1177
I1
sS'In'
p1178
I2
sS'hlviewer'
p1179
I1
sS'fffhlviewer'
p1180
I1
sS'ccc'
p1181
I1
sS'Loading'
p1182
I1
sS'slthumbnailsbottom10pxhlviewer'
p1183
I1
sS'money'
p1184
I1
sS'darlaPositionPerfsize'
p1185
I1
sS'fueling'
p1186
I1
sS'Bxzcbwebkitboxsizingcontentboxmozboxsizingcontentboxboxsizingcontentboxappletp63794'
p1187
I1
sS'spaceID'
p1188
I1
sS'checkImagesifchecksRemainreturndetectederror1error2var'
p1189
I1
sS'resizeto'
p1190
I1
sS'22xb0f'
p1191
I1
sS'backfillvideoads'
p1192
I3
sS'Mend1marginright1pxappletp63794'
p1193
I1
sS'vic2'
p1194
I3
sS'W1width1appletp63794'
p1195
I1
sS'colorstop78rgba000085'
p1196
I1
sS'except'
p1197
I1
sS'winnerWidth'
p1198
I1
sS'Mamarginautoappletp63794'
p1199
I1
sS'Lh0lineheight0appletp63794'
p1200
I1
sS'4'
p1201
I2
sS'Tduappletp63794'
p1202
I1
sS'jslbnextfocushlviewer'
p1203
I1
sS'Change'
p1204
I1
sS'jsstreamcmntupselected'
p1205
I1
sS'typeabk'
p1206
I1
sS'rules'
p1207
I1
sS'Miw35minwidth35appletp63794'
p1208
I1
sS'81px'
p1209
I1
sS'afconfigafsyncafutilsmodel'
p1210
I1
sS'dark'
p1211
I2
sS'afterPageLoad'
p1212
I3
sS'yui3widgethiddendisplaynoneyui3widgetcontentoverflowhiddenyui3widgetcontentexpandedmozboxsizingborderboxwebkitboxsizingborderboxmsboxsizingborderboxboxsizingborderboxheight100yui3widgettmpforcesizeoverflowhiddenimportantyui3cssstampskinsamwidgetbasedisplaynoneyui3aclistpositionabsolutezindex1yui3aclisthiddenvisibilityhiddenyui3aclistarialeft9999pxpositionabsoluteyui3aclistlistliststylenonemargin0overflowhiddenpadding0yui3aclistitemcursorpointerliststylenonepadding2px'
p1213
I1
sS'solidhlviewer'
p1214
I1
sS'documentbodyoffsetHeight'
p1215
I2
sS'Z5zindex5appletp63794'
p1216
I1
sS'typeabu'
p1217
I1
sS'Trillion'
p1218
I1
sS'splashexpand'
p1219
I1
sS'My10margintop10pxmarginbottom10pxappletp63794'
p1220
I1
sS'Wpx10width10pxappletp63794'
p1221
I1
sS'StickyPholderdisplayinlineblockShareBtns'
p1222
I1
sS'Mt50margintop50pxappletp63794'
p1223
I1
sS'splashreplay'
p1224
I1
sS'brightrollbackfillinfo'
p1225
I1
sS'exppush'
p1226
I3
sS'node'
p1227
I3
sS'ctout320'
p1228
I1
sS'dataaftNoAd'
p1229
I2
sS'k2uri'
p1230
I1
sS'expiressetMinutesexpiresgetMinutes'
p1231
I1
sS'Amazing'
p1232
I1
sS'duration'
p1233
I5
sS'New'
p1234
I2
sS'yui3aclistcontent'
p1235
I1
sS'mslineargradient45deg'
p1236
I2
sS'imatchLREC'
p1237
I1
sS'windowpendingAds'
p1238
I1
sS'W3C'
p1239
I6
sS'scholarships'
p1240
I2
sS'usesABP'
p1241
I1
sS'garland'
p1242
I1
sS'Answers'
p1243
I1
sS'YUIaddloaderapeaffunctionetYUIEnveversionmodulesYUIEnveversionmodulesemixYUIEnveversionmodulesafbeacongroupapeafrequiresjsonstringifyquerystringstringifysimpleiobaseafbootstrapgroupapeafrequiresafutilsafcachegroupapeafrequiresafbeaconjsongallerystorageliteafcompositeviewgroupapeafrequiresparallelafutilsafcomscoregroupapeafrequiresafbeaconafconfigquerystringstringifysimpleafconfiggroupapeafrequiresafutilscookieafcontentgroupapeafrequiresafconfigafdomafutilsjsonparsemjataresthttpnodepluginhostquerystringstringifyafcookiegroupapeafrequirescookiejsonafdomgroupapeafrequiresnodebasenodecoreafdwelltimegroupapeafrequiresafrapidjsonstringifyafeutrackinggroupapeafrequiresafbeaconmediaagoftrackingafeventgroupapeafrequireseventcustomafhistorygroupapeafrequiresjsonafmessagegroupapeaflangBundlesstringsrequiresapeaftemplatesmessageafutilsnodebaseselectorcss3afpagevizgroupapeafrequireseventcustomafpollgroupapeafrequiresafpagevizafrapidgroupapeafrequiresafbootstrapafutilsmediarapidtrackingnodecoreafsyncgroupapeafrequiresaftransportafutilsaftransgroupapeafrequiresnodebasetransitionafutilsaftransportgroupapeafrequiresafbeaconafconfigafutilsjsonstringifytdapiremotestoreafutilsgroupapeafrequirescookieintloopquerystringparsesimpleafviewportloadergroupapeafrequiresnodeeventbaseapeaflangstringsgroupapeafrequiresintlapeaflangstringsargroupapeafrequiresintlapeaflangstringsarjogroupapeafrequiresintlapeaflangstringsdedegroupapeafrequiresintlapeaflangstringselgrgroupapeafrequiresintlapeaflangstringsenaegroupapeafrequiresintlapeaflangstringsenaugroupapeafrequiresintlapeaflangstringsencagroupapeafrequiresintlapeaflangstringsengbgroupapeafrequiresintlapeaflangstringseniegroupapeafrequiresintlapeaflangstringseningroupapeafrequiresintlapeaflangstringsenjogroupapeafrequiresintlapeaflangstringsenmygroupapeafrequiresintlapeaflangstringsennzgroupapeafrequiresintlapeaflangstringsenphgroupapeafrequiresintlapeaflangstringsensggroupapeafrequiresintlapeaflangstringsenusgroupapeafrequiresintlapeaflangstringsenzagroupapeafrequiresintlapeaflangstringsesargroupapeafrequiresintlapeaflangstringsesclgroupapeafrequiresintlapeaflangstringsescogroupapeafrequiresintlapeaflangstringsesesgroupapeafrequiresintlapeaflangstringsesmxgroupapeafrequiresintlapeaflangstringsespegroupapeafrequiresintlapeaflangstringsesusgroupapeafrequiresintlapeaflangstringsesvegroupapeafrequiresintlapeaflangstringsfrbegroupapeafrequiresintlapeaflangstringsfrcagroupapeafrequiresintlapeaflangstringsfrfrgroupapeafrequiresintlapeaflangstringsididgroupapeafrequiresintlapeaflangstringsititgroupapeafrequiresintlapeaflangstringsnlbegroupapeafrequiresintlapeaflangstringsnlnlgroupapeafrequiresintlapeaflangstringsptbrgroupapeafrequiresintlapeaflangstringsrorogroupapeafrequiresintlapeaflangstringssvsegroupapeafrequiresintlapeaflangstringsvivngroupapeafrequiresintlapeaflangstringszhhanthkgroupapeafrequiresintlapeaflangstringszhhanttwgroupapeafrequiresintlapeaftemplatesmessagegroupapeafrequirestemplatebasedustgallerystoragelitegroupapeafrequireseventbaseeventcustomeventcustomcomplexjsonnodebasemediaagoftrackinggroupapeafmediarapidtrackinggroupapeafrequireseventcustombasenodemediarmpgroupapeafrequiresnodeiobaseasyncqueuegettdapiremotestoregroupapeafrequiresmjatastoremjataresthttpjsonVERSIONrequiresloaderbase'
p1244
I1
sS'windowperformancemarkname'
p1245
I1
sS'h6fontweight400HlViewer'
p1246
I1
sS'W45width45width449appletp63794'
p1247
I1
sS'lhRecordStartRender'
p1248
I1
sS'BrandBarReaderopen'
p1249
I1
sS'Pb6paddingbottom6pxappletp63794'
p1250
I1
sS'windowadPerfBeaconDataspaceId'
p1251
I2
sS'measuring'
p1252
I1
sS'business'
p1253
I1
sS'Mt40margintop40pxappletp63794'
p1254
I1
sS'posItemsize'
p1255
I1
sS'windowYUIconfiglang'
p1256
I2
sS'notably'
p1257
I1
sS'srchinputwidth268pxheight100lineheightinheritverticalaligntopoutline0boxshadownonebordernoneborder1px'
p1258
I1
sS'FfdfontfamilyCapitalsImpactfantasyappletp63794'
p1259
I1
sS'rgba0000'
p1260
I12
sS'YUIaddloadertdappletbreakingnewsatomicfunctionetYUIEnveversionmodulesYUIEnveversionmodulesemixYUIEnveversionmodulestdappletbreakingnewsatomictemplatesfeaturegrouptdappletbreakingnewsatomicrequirestemplatebasedusttdappletbreakingnewsatomictemplatesmaingrouptdappletbreakingnewsatomicrequirestemplatebasedusttdbreakingnewsmodelgrouptdappletbreakingnewsatomicrequiresmodelafsyncVERSIONrequiresloaderbase'
p1261
I1
sS'W30width30width296appletp63794'
p1262
I1
sS'MathroundwindowperformancegetEntriesByNamePSTMSG'
p1263
I1
sS'discrimination'
p1264
I1
sS'f1f1f5modaltooltiphover'
p1265
I1
sS'aftnoad'
p1266
I1
sS'windowLHtagl'
p1267
I1
sS'strmupsellgradientrightDisabled'
p1268
I1
sS'JsEnabled'
p1269
I6
sS'ff7617'
p1270
I6
sS'Wpx28width28pxappletp63794'
p1271
I1
sS'determine'
p1272
I1
sS'uaie'
p1273
I1
sS'Py6paddingtop6pxpaddingbottom6pxappletp63794'
p1274
I1
sS'color0078ff'
p1275
I1
sS'Mathmaxapplynull'
p1276
I1
sS'darlaJsLoaded'
p1277
I1
sS'modfullpathreplacelang'
p1278
I1
sS'stealth'
p1279
I1
sS'low'
p1280
I1
sS'7Start50'
p1281
I1
sS'autohlviewer'
p1282
I1
sS'YUIapplyConfiggroupsapeafcombinetruefiltermincomboSepcomboBasehttpssyimgcomzzcombobasehttpssyimgcomosmittdapeaf00330rootosmittdapeaf00330'
p1283
I1
sS'lang'
p1284
I6
sS'Curnacursornotallowedappletp63794'
p1285
I1
sS'complete'
p1286
I1
sS'ContentColmarginleft300pxmarginright300pxminheight100pxHideCentralColumn'
p1287
I1
sS'fdbexp'
p1288
I4
sS'Px0paddingleft0appletp63794'
p1289
I1
sS'FPAD'
p1290
I1
sS'TrolwebkittextrenderingoptimizeLegibilitymoztextrenderingoptimizeLegibilitymstextrenderingoptimizeLegibilityotextrenderingoptimizeLegibilitytextrenderingoptimizeLegibilityappletp63794'
p1291
I1
sS'ex'
p1292
I2
sS'Guide'
p1293
I1
sS'nnlibmetrogmyyadvancedesktop008js'
p1294
I1
sS'pitting'
p1295
I1
sS'House'
p1296
I2
sS'bucket'
p1297
I3
sS'viewerwrappertop12pxvmtitle'
p1298
I1
sS'nnlibmetroggeminiadsgeminiads004js'
p1299
I1
sS'Mb60marginbottom60pxappletp63794'
p1300
I1
sS'Close'
p1301
I1
sS'typepagenav'
p1302
I1
sS'P1padding1pxappletp63794'
p1303
I1
sS'thankfulquot'
p1304
I1
sS'ssrc'
p1305
I1
sS'ad'
p1306
I9
sS'transparenthlviewer'
p1307
I1
sS'sales'
p1308
I1
sS'deep'
p1309
I1
sS'Whsnwhitespacenormalappletp63794'
p1310
I1
sS'How'
p1311
I1
sS'posInfoplacementId'
p1312
I1
sS'jsstreamcmntflaghover'
p1313
I1
sS'girlfriend'
p1314
I4
sS'img2new'
p1315
I1
sS'Miw30minwidth30appletp63794'
p1316
I1
sS'nodenodeeventdelegateanimtransitioneventmovestencilstencilscrollview'
p1317
I1
sS'documentgetElementsByTagNamehtml0classNamematchReaderopen'
p1318
I1
sS'2000'
p1319
I1
sS'1110'
p1320
I6
sS'windowperfBackfillAdBeacon'
p1321
I3
sS'Mend10marginright10pxappletp63794'
p1322
I1
sS'reqList'
p1323
I1
sS'windowLHrecordname'
p1324
I1
sS'MathroundwindowperformancegetEntriesByNameADEND'
p1325
I1
sS'opacity'
p1326
I19
sS'Bdtlrs0bordertopleftradius0appletp63794'
p1327
I1
sS'Maw30maxwidth30appletp63794'
p1328
I1
sS'0hlviewer'
p1329
I2
sS'gifts'
p1330
I1
sS'push'
p1331
I1
sS'contentmodalhlviewer'
p1332
I1
sS'afafafmozboxshadow1px'
p1333
I1
sS'Miw50minwidth50appletp63794'
p1334
I1
sS'lhRecordname'
p1335
I1
sS'visits'
p1336
I1
sS'odds'
p1337
I1
sS'Posspositionstaticappletp63794'
p1338
I1
sS'functiondata'
p1339
I2
sS'Wpx2width2pxappletp63794'
p1340
I1
sS'abaeb7ShareBtns'
p1341
I1
sS'YUIapplyConfiggroupstdlibsocialcombinetruefiltermincomboSepcomboBasehttpssyimgcomzzcombobasehttpssyimgcomosmittdtdlibsocial01207rootosmittdtdlibsocial01207'
p1342
I1
sS'DategetTime'
p1343
I1
sS'Start0left0appletp63794'
p1344
I1
sS'original'
p1345
I1
sS'posItemmetavaluesize'
p1346
I1
sS'loader'
p1347
I1
sS'Py2paddingtop2pxpaddingbottom2pxappletp63794'
p1348
I1
sS'arguments6'
p1349
I1
sS'Mtneg4margintop4pxappletp63794'
p1350
I1
sS'Pt2paddingtop2pxappletp63794'
p1351
I1
sS'arguments2'
p1352
I1
sS'arguments3'
p1353
I1
sS'month'
p1354
I1
sS'YUI'
p1355
I2
sS'Martin39s'
p1356
I1
sS'useYAC0usePE0servicePathhttpswwwyahoocomsdarlaphpfcphpxservicePathbeaconPathhttpswwwyahoocomsdarlaphpbphprenderPathallowFiFfalsesrenderPathhttpssyimgcomrqdarla299htmlrsfhtmlrenderFilehttpssyimgcomrqdarla299htmlrsfhtmlsfbrenderPathhttpssyimgcomrqdarla299htmlrsfhtmlmsgPathhttpswwwyahoocomsdarla299htmlmsghtmlcscPathhttpssyimgcomrqdarla299htmlrcschtmlrootsdarlaedgeRoothttplyimgcomrqdarla299sedgeRoothttpssyimgcomrqdarla299version299tpbURIhostFilehttpssyimgcomrqdarla299jsgrminjsbeaconsDisabledtruerotationTimingDisabledtruefdblocaleWhat'
p1357
I1
sS'browsers'
p1358
I2
sS'Parents'
p1359
I1
sS'c2'
p1360
I1
sS'rights'
p1361
I1
sS'ownquot'
p1362
I1
sS'HeadlineBoxmarginbottom10pxhlviewer'
p1363
I1
sS'c7'
p1364
I1
sS'NCAA'
p1365
I1
sS'init'
p1366
I1
sS'rectauto'
p1367
I1
sS'c5'
p1368
I1
sS'nnlibmetrogmyynewpureclientdarla001js'
p1369
I1
sS'credithlviewer'
p1370
I2
sS'overflowhidden'
p1371
I1
sS'Wpx16width16pxappletp63794'
p1372
I1
sS'Start25left25appletp63794'
p1373
I1
sS'woman'
p1374
I1
sS'5Start50'
p1375
I1
sS'Z7zindex7appletp63794'
p1376
I1
sS'easeinoutpositionfixedtop0width600pxpadding14px'
p1377
I1
sS'jsenabled'
p1378
I1
sS'P4padding4pxappletp63794'
p1379
I1
sS'grouptdappletstreamatomicrequirestemplatebasedusttdappletstreamatomictemplatesdebugtdappletstreamatomictemplatesmaingrouptdappletstreamatomicrequirestemplatebasedusttdappletstreamatomictemplatesbreakingnewstdappletstreamatomictemplateserrormsgtdappletstreamatomictemplatesrelatedgrouptdappletstreamatomicrequirestemplatebasedusttdappletstreamatomictemplatesremoveditemgrouptdappletstreamatomicrequirestemplatebasedusttdappletstreambaseviewv2grouptdappletstreamatomicrequiresafappletviewnodescrollinfoafbeacontdappletstreamheaderviewv2grouptdappletstreamatomicrequiresafappletviewtdappletstreamitemsmodelv2grouptdappletstreamatomicrequiresmodelafsynctdappletstreammainviewv2grouptdappletstreamatomicrequiresafbeaconafcookieafcacheafeventafpipestencilimageloadertdappletstreambaseviewv2tdappletstreammodelv2grouptdappletstreamatomicrequiresmodelafsynctdappletstreamonboardingmodelv2grouptdappletstreamatomicrequiresmodelafsynctdappletstreampayoffmodelv2grouptdappletstreamatomicrequiresmodelafsynctdappletstreamrelatedmodelatomicgrouptdappletstreamatomicrequiresmodelafsyncVERSIONrequiresloaderbase'
p1380
I1
sS'1px'
p1381
I15
sS'newWidth'
p1382
I3
sS'typeyahoodotcomclient'
p1383
I1
sS'acolor188fffvmcontainer'
p1384
I1
sS'isMONFetch'
p1385
I4
sS'Lh17lineheight17appletp63794'
p1386
I1
sS'celebrity'
p1387
I1
sS'contentmodalborderbottomwidth3pxbordercolor000ModalSticker'
p1388
I1
sS'15appletp63794'
p1389
I1
sS'borderbottomleftradius'
p1390
I2
sS'marginright'
p1391
I2
sS'nnlibmetrogmyyadvance004js'
p1392
I1
sS'Pb14paddingbottom14pxappletp63794'
p1393
I1
sS'vmpromotedcolor959595media'
p1394
I1
sS'Pb18paddingbottom18pxappletp63794'
p1395
I1
sS'Actually'
p1396
I1
sS'Fvscfontvariantsmallcapsappletp63794'
p1397
I1
sS'Only'
p1398
I1
sS'color999'
p1399
I1
sS'modalasidewrapperverticalaligntoptransformtranslateZ0hlviewer'
p1400
I1
sS'Lh22lineheight22appletp63794'
p1401
I1
sS'ribbon'
p1402
I1
sS'Pb4paddingbottom4pxappletp63794'
p1403
I1
sS'isAd'
p1404
I1
sS'nnlibmetrogeventsevents003js'
p1405
I1
sS'Mb70marginbottom70pxappletp63794'
p1406
I1
sS'scientists'
p1407
I1
sS'videoAd'
p1408
I1
sS'jsstreamcontentlinkhover'
p1409
I1
sS'revealing'
p1410
I1
sS'Bgcppbbackgroundclippaddingboxappletp63794'
p1411
I1
sS'slsliderctwidth350pxhlviewer'
p1412
I1
sS'W35width35width349appletp63794'
p1413
I1
sS'pdisplayinlinecolor747474fontweight400HlViewer'
p1414
I1
sS'windowperformancegetEntriesByNameMODALOPEN0'
p1415
I1
sS'NFL'
p1416
I1
sS'elparentNodeinsertBefores'
p1417
I1
sS'beacon'
p1418
I2
sS'curAdclassNamereplaceHt250'
p1419
I2
sS'YUIaddloaderapeappletfunctionetYUIEnveversionmodulesYUIEnveversionmodulesemixYUIEnveversionmodulesafappletgroupapeappletrequiresafappletdomafappletmodelafappletheaderviewafbootstrapafcompositeviewafconfigafutilsarrayextraseventcustomnodestenciltooltipafappletactiongroupapeappletrequiresafappletdomafutilsnodeeventdelegatenodebaseafappletdomgroupapeappletrequiresnodecoreaftransafappleteditviewgroupapeappletrequiresafappletviewapeapplettemplatesmoreinfoapeapplettemplatesremoveafappletheaderviewgroupapeappletrequiresafappletviewstencilselectboxafappletinitgroupapeappletrequiresafappletafbeaconafbootstrapafconfigafutilseventtouchoopafappletloadgroupapeappletrequiresafappletdomafmessageaftransportapeapplettemplatesreloadafappletmgrgroupapeappletrequiresafappletdomafbeaconafcontentaftransportafutilsafappletmodelgroupapeappletlangBundlesstringsrequiresafbootstrapafconfigafsyncbasebuildmjatajsonmodelafappletsavesettingsgroupapeappletrequiresafdomafmessageafappletsettingsviewgroupapeappletrequiresafappletviewapeapplettemplatessettingswrapafappletviewgroupapeappletrequiresafbootstrapafutilsbasebuilddustviewafappletviewmgrgroupapeappletrequiresafappletdomafappletsgroupapeappletrequiresafappletactionafappletinitafappletloadafappletmgrafappletsavesettingsafappletviewmgrafdomafutilsapeappletlangstringsgroupapeappletrequiresintlapeappletlangstringsargroupapeappletrequiresintlapeappletlangstringsarjogroupapeappletrequiresintlapeappletlangstringsdedegroupapeappletrequiresintlapeappletlangstringselgrgroupapeappletrequiresintlapeappletlangstringsenaegroupapeappletrequiresintlapeappletlangstringsenaugroupapeappletrequiresintlapeappletlangstringsencagroupapeappletrequiresintlapeappletlangstringsengbgroupapeappletrequiresintlapeappletlangstringseniegroupapeappletrequiresintlapeappletlangstringseningroupapeappletrequiresintlapeappletlangstringsenjogroupapeappletrequiresintlapeappletlangstringsenmygroupapeappletrequiresintlapeappletlangstringsennzgroupapeappletrequiresintlapeappletlangstringsenphgroupapeappletrequiresintlapeappletlangstringsensggroupapeappletrequiresintlapeappletlangstringsenusgroupapeappletrequiresintlapeappletlangstringsenzagroupapeappletrequiresintlapeappletlangstringsesargroupapeappletrequiresintlapeappletlangstringsesclgroupapeappletrequiresintlapeappletlangstringsescogroupapeappletrequiresintlapeappletlangstringsesesgroupapeappletrequiresintlapeappletlangstringsesmxgroupapeappletrequiresintlapeappletlangstringsespegroupapeappletrequiresintlapeappletlangstringsesusgroupapeappletrequiresintlapeappletlangstringsesvegroupapeappletrequiresintlapeappletlangstringsfrbegroupapeappletrequiresintlapeappletlangstringsfrcagroupapeappletrequiresintlapeappletlangstringsfrfrgroupapeappletrequiresintlapeappletlangstringsididgroupapeappletrequiresintlapeappletlangstringsititgroupapeappletrequiresintlapeappletlangstringsnlbegroupapeappletrequiresintlapeappletlangstringsnlnlgroupapeappletrequiresintlapeappletlangstringsptbrgroupapeappletrequiresintlapeappletlangstringsrorogroupapeappletrequiresintlapeappletlangstringssvsegroupapeappletrequiresintlapeappletlangstringsvivngroupapeappletrequiresintlapeappletlangstringszhhanthkgroupapeappletrequiresintlapeappletlangstringszhhanttwgroupapeappletrequiresintlapeapplettemplatesmoreinfogroupapeappletrequirestemplatebasedustapeapplettemplatesreloadgroupapeappletrequirestemplatebasedustapeapplettemplatesremovegroupapeappletrequirestemplatebasedustapeapplettemplatessettingswrapgroupapeappletrequirestemplatebasedustVERSIONrequiresloaderbase'
p1420
I1
sS'Brownback'
p1421
I1
sS'pt1vermegastrm'
p1422
I1
sS'Pstart0appletp63794'
p1423
I1
sS'ContentBodycolor000fontweight300letterspacing3pxwordwrapbreakwordwordbreakbreakwordHlViewer'
p1424
I1
sS'windowperfMarkPSTMSGPBSTART'
p1425
I1
sS'Pt20paddingtop20pxappletp63794'
p1426
I1
sS'yvpstateendscreenyvpstatefullscreen'
p1427
I1
sS'INTLS'
p1428
I1
sS'lbmetatxtcontainercaptionscrollmaxheight43emoverflowyautohlviewer'
p1429
I1
sS'highlanderclient'
p1430
I1
sS'Miw100minwidth100appletp63794'
p1431
I1
sS'Pend1paddingright1pxappletp63794'
p1432
I1
sS'Bdtlrs100bordertopleftradius100pxappletp63794'
p1433
I1
sS'Style'
p1434
I4
sS'Constitution'
p1435
I1
sS'family'
p1436
I1
sS'va'
p1437
I3
sS'FacebookBtncolor3b5998ShareBtns'
p1438
I1
sS'imgMb20pmargintop0hlviewer'
p1439
I1
sS'DrenderRenderMgrgetdataviewedAt'
p1440
I1
sS'typeoptin'
p1441
I1
sS'Chrome10Safari51'
p1442
I6
sS'Imageimg1onloadcheckImagesimg1onerrorfunctionerror1truecheckImagesimg1srcpxreplace1replacerandomvar'
p1443
I1
sS'positionindexOfLREC'
p1444
I1
sS'takes'
p1445
I2
sS'TumblrBtncolor35506dShareBtns'
p1446
I1
sS'resident'
p1447
I1
sS'MathroundwindowperformancegetEntriesByNameADSTART'
p1448
I1
sS'nnlibmetrogmyyflashdetection000js'
p1449
I1
sS'curAdparentElementclassNamereplacelrecbgcolor'
p1450
I3
sS'6'
p1451
I2
sS'fallbackDivclassNameindexOfDn'
p1452
I1
sS'military'
p1453
I1
sS'188FFFpadding8px'
p1454
I1
sS'textalign'
p1455
I2
sS'Mbneg4marginbottom4pxappletp63794'
p1456
I1
sS'W20width20width195appletp63794'
p1457
I1
sS'Bdendborderrightwidth1pxappletp63794'
p1458
I1
sS'typecustomizedbutton'
p1459
I1
sS'ImageLoaderDelayedJsEnabled'
p1460
I1
sS'windowadPerfBeaconData'
p1461
I1
sS'site'
p1462
I2
sS'Mstart30marginleft30pxappletp63794'
p1463
I1
sS'basically'
p1464
I1
sS'none'
p1465
I7
sS'cluster'
p1466
I2
sS'localesconcat'
p1467
I1
sS'Mtneg30margintop30pxhlviewer'
p1468
I1
sS'modlangBundles'
p1469
I1
sS'poslist'
p1470
I1
sS'bordertop'
p1471
I1
sS'Fwnfontweight400appletp63794'
p1472
I1
sS'ConPosMsg'
p1473
I1
sS'photocopyrighthlviewer'
p1474
I2
sS'CorsivaComic'
p1475
I1
sS'SidekickTV'
p1476
I3
sS'textalignleft'
p1477
I1
sS'windowperformancegetEntriesByNameMODALFETCHSTART'
p1478
I1
sS'sense'
p1479
I1
sS'161pxcolor0a80e3ShareBtns'
p1480
I1
sS'FixedHeader'
p1481
I2
sS'fontfamilyHelvetica'
p1482
I2
sS'narrowly'
p1483
I1
sS'Px18paddingright18pxpaddingleft18pxappletp63794'
p1484
I1
sS'contentmodaldisplayinlineblockwidth640pxmarginright29pxverticalaligntophlviewer'
p1485
I1
sS'nnlibmetrogmyyheaderuhinit0013js'
p1486
I1
sS'YUIusenodeeventbase'
p1487
I1
sS'0rgba0000'
p1488
I8
sS'32rgba000065'
p1489
I4
sS'yvpbottomcontainer'
p1490
I1
sS'reject'
p1491
I2
sS'W50width50width495appletp63794'
p1492
I1
sS'fp'
p1493
I3
sS'intended'
p1494
I1
sS'aft2'
p1495
I5
sS'Mt4margintop4pxappletp63794'
p1496
I1
sS'pdisplayblockhlviewer'
p1497
I1
sS'Dtbcldisplaytablecolumnappletp63794'
p1498
I1
sS'startTime'
p1499
I4
sS'horizontal'
p1500
I2
sS'textdecorationnone'
p1501
I1
sS'lhRecordXFBN'
p1502
I1
sS'ContentBodypaddingbottom0borderbottomnonehlviewer'
p1503
I1
sS'Fw400fontweight400fontweightnormalappletp63794'
p1504
I1
sS'anytime'
p1505
I1
sS'borderbox'
p1506
I2
sS'generic'
p1507
I1
sS'Democrats'
p1508
I2
sS'YUIEnvcorepushapplyYUIEnvcoreloaderangusloaderapeafloaderapeappletloaderapelocationloaderapepipeloaderapesocialloaderappletserverloaderassemblerloaderdusthelpersloaderfinancestreamerloaderhighlanderclientloaderliveeventdataloadermjataloaderstencilloadertdapiloadertddevinfoloadertdlibentertainmentloadertdliblivevideoloadertdlibsocialloadertdappletstreamatomicloadertdappletmegaheaderloadertdappletviewerloadertdappletnavlinksatomicloadertdapplettrendingatomicloadertdappletfputilsloadertdappletbreakingnewsatomicloadertdappletsidekickloadertdappletrelatedcontentloadertdappletmegacommentsloadertdappletweatheratomicloadertdappletdiscussionloadertdappletsportscountdownloadertdappletcanvass'
p1509
I1
sS'0appletp63794'
p1510
I1
sS'quotpulse'
p1511
I1
sS'What'
p1512
I2
sS'modalStartstartTime'
p1513
I1
sS'curEvt'
p1514
I2
sS'radar'
p1515
I2
sS'backfillVideoPlaybackStartisAd'
p1516
I1
sS'fff'
p1517
I4
sS'documentgetElementByIdmyadsposId'
p1518
I1
sS'Listdliststyletypediscappletp63794'
p1519
I1
sS'nnlibmetrogappscontainerappscontainersmartphone0018js'
p1520
I1
sS'Psoriasis'
p1521
I1
sS'25'
p1522
I1
sS'Mbneg10marginbottom10pxappletp63794'
p1523
I1
sS'YUIaddloadertdappletfputilsfunctionetYUIEnveversionmodulesYUIEnveversionmodulesemixYUIEnveversionmodulestd404mainviewgrouptdappletfputilsrequiresafappletviewstencilfxcollapsetd404mainviewtouchgrouptdappletfputilsrequiresafappletviewstenciltooltiptd404mainviewadvgrouptdappletfputilsrequiresafappletviewstencilfxcollapsetdappletfputilstemplatesbannergrouptdappletfputilsrequirestemplatebasedusttdappletfputilstemplatesdevicetogglegrouptdappletfputilsrequirestemplatebasedusttdappletfputilstemplatesfullpropertylinkgrouptdappletfputilsrequirestemplatebasedusttdappletfputilstemplatesgetapppromogrouptdappletfputilsrequirestemplatebasedusttdappletfputilstemplateshpsetgrouptdappletfputilsrequirestemplatebasedusttdappletfputilstemplateshpsetatomicgrouptdappletfputilsrequirestemplatebasedusttdappletfputilstemplateshpsetattgrouptdappletfputilsrequirestemplatebasedusttdappletfputilstemplateshpsettdappletfputilstemplateshpsetattatomicgrouptdappletfputilsrequirestemplatebasedusttdappletfputilstemplateshpsetatomictdappletfputilstemplateshpsetfrontiergrouptdappletfputilsrequirestemplatebasedusttdappletfputilstemplateshpsettdappletfputilstemplateshpsetfrontieratomicgrouptdappletfputilsrequirestemplatebasedusttdappletfputilstemplateshpsetatomictdappletfputilstemplateshpsetrogersgrouptdappletfputilsrequirestemplatebasedusttdappletfputilstemplateshpsettdappletfputilstemplateshpsetsmartfrengrouptdappletfputilsrequirestemplatebasedusttdappletfputilstemplateshpsettdappletfputilstemplateshpsettatagrouptdappletfputilsrequirestemplatebasedusttdappletfputilstemplateshpsettdappletfputilstemplateshpsetverizongrouptdappletfputilsrequirestemplatebasedusttdappletfputilstemplateshpsettdappletfputilstemplateshpsetverizonatomicgrouptdappletfputilsrequirestemplatebasedusttdappletfputilstemplateshpsetatomictdappletfputilstemplatesiframegrouptdappletfputilsrequirestemplatebasedusttdappletfputilstemplatesnavrailv2grouptdappletfputilsrequirestemplatebasedusttdappletfputilstemplatesredirect404grouptdappletfputilsrequirestemplatebasedusttdappletfputilstemplatesredirect404atomicgrouptdappletfputilsrequirestemplatebasedusttdappletfputilstemplatesredirect404smartphonegrouptdappletfputilsrequirestemplatebasedusttdappletfputilstemplatesredirect404tabletgrouptdappletfputilsrequirestemplatebasedusttdappletfputilstemplatesredirect404advgrouptdappletfputilsrequirestemplatebasedusttdappletfputilstemplatestabsgrouptdappletfputilsrequirestemplatebasedusttdappletfputilstemplateslayoutstdfullpropertylinkmainviewgrouptdappletfputilsrequiresafappletviewafeventtdhpsetmainviewgrouptdappletfputilsrequiresafappletviewstencillightboxafcookieafhistoryafbeaconafeventtdiframemainviewgrouptdappletfputilsrequiresafappletviewtdnavrailv2mainviewgrouptdappletfputilsrequiresafappletviewnodenodeeventdelegatetdtabsmainviewgrouptdappletfputilsrequiresafappletviewafcookieVERSIONrequiresloaderbase'
p1524
I1
sS'DEFAULTclwLREC0blockedbyMON0MON0blockedbyLREC0MAST0blockedbyLDRB0SPL0SPL0blockedbyLDRB0MAST0LDRB0blockedbyMAST0SPL0'
p1525
I1
sS'23'
p1526
I1
sS'Listcliststyletypecircleappletp63794'
p1527
I1
sS'28'
p1528
I1
sS'Clnclearnoneappletp63794'
p1529
I1
sS'windowperfMarkMODALFETCHEND'
p1530
I1
sS'absence'
p1531
I1
sS'lhRecord'
p1532
I3
sS'nnlibmetrogwindowshadepartnerwindowshade003js'
p1533
I1
sS'return'
p1534
I6
sS'h2HlViewer'
p1535
I1
sS'buys'
p1536
I1
sS'perfmarks'
p1537
I1
sS'windowperfMarkMODALADWSEND'
p1538
I1
sS'Px12paddingright12pxpaddingleft12pxappletp63794'
p1539
I1
sS'Pt10paddingtop10pxappletp63794'
p1540
I1
sS'positionindexOfMON'
p1541
I1
sS'dataaft'
p1542
I3
sS'splashClose'
p1543
I2
sS'nnlibmetrogmyyabuvideo007js'
p1544
I1
sS'nodeeventiopaneliobase'
p1545
I1
sS'Amendment'
p1546
I2
sS'Pb10paddingbottom10pxappletp63794'
p1547
I1
sS'2s'
p1548
I1
sS'windowYAFTinityaftConfig'
p1549
I1
sS'ImageLoaderDelayedbackgroundf5f5f5'
p1550
I1
sS'e0e4e9webkittransitionheight'
p1551
I1
sS'Cpositions'
p1552
I1
sS'suppugc'
p1553
I4
sS'lrecBackfillString'
p1554
I2
sS'B2B2B2paddingtop50pxhlviewer'
p1555
I1
sS'weighs'
p1556
I1
sS'YUIaddloadertdappletmegacommentsfunctionetYUIEnveversionmodulesYUIEnveversionmodulesemixYUIEnveversionmodulestdappletmegacommentsmainviewgrouptdappletmegacommentsrequiresafappletviewaftransportafutilsafrapidstenciltooltiptdappletmegacommentstemplatesstylestdappletmegacommentstemplatesactivitiesgrouptdappletmegacommentsrequirestemplatebasedusttdappletmegacommentstemplatesactivitycommentstdappletmegacommentstemplatesactivitycommentsgrouptdappletmegacommentsrequirestemplatebasedusttdappletmegacommentstemplatesavatartdappletmegacommentstemplatescommentsbodytdappletmegacommentstemplatesactivityrepliestdappletmegacommentstemplatesactivityrepliesgrouptdappletmegacommentsrequirestemplatebasedusttdappletmegacommentstemplatesavatartdappletmegacommentstemplatesrepliesbodytdappletmegacommentstemplatesavatargrouptdappletmegacommentsrequirestemplatebasedusttdappletmegacommentstemplatescommentsgrouptdappletmegacommentsrequirestemplatebasedusttdappletmegacommentstemplatesavatartdappletmegacommentstemplatescommentsbodytdappletmegacommentstemplatescommentsbodygrouptdappletmegacommentsrequirestemplatebasedusttdappletmegacommentstemplatescommentseditortoolstdappletmegacommentstemplatescommentseditortoolsgrouptdappletmegacommentsrequirestemplatebasedusttdappletmegacommentstemplatesformabusegrouptdappletmegacommentsrequirestemplatebasedusttdappletmegacommentstemplatesformcommentgrouptdappletmegacommentsrequirestemplatebasedusttdappletmegacommentstemplatesformdeletegrouptdappletmegacommentsrequirestemplatebasedusttdappletmegacommentstemplatesformreplygrouptdappletmegacommentsrequirestemplatebasedusttdappletmegacommentstemplatesmaingrouptdappletmegacommentsrequirestemplatebasedusttdappletmegacommentstemplatesformcommenttdappletmegacommentstemplatesformreplytdappletmegacommentstemplatesformabusetdappletmegacommentstemplatesformdeletetdappletmegacommentstemplatesmainactivitiesgrouptdappletmegacommentsrequirestemplatebasedusttdappletmegacommentstemplatesactivitiestdappletmegacommentstemplatesrepliesgrouptdappletmegacommentsrequirestemplatebasedusttdappletmegacommentstemplatesavatartdappletmegacommentstemplatesrepliesbodytdappletmegacommentstemplatesrepliesbodygrouptdappletmegacommentsrequirestemplatebasedusttdappletmegacommentstemplatesstylesgrouptdappletmegacommentsrequirestemplatebasedustVERSIONrequiresloaderbase'
p1557
I1
sS'energy'
p1558
I1
sS'Mstart50marginleft50pxappletp63794'
p1559
I1
sS'Sports'
p1560
I4
sS'typeflashdetection'
p1561
I1
sS'End100right100appletp63794'
p1562
I1
sS'Mstart4marginleft4pxappletp63794'
p1563
I1
sS'typegeminiads'
p1564
I1
sS'event'
p1565
I1
sS'More'
p1566
I5
sS'typespacebarscroll'
p1567
I1
sS'M12margin12pxappletp63794'
p1568
I1
sS'flSAKeybct'
p1569
I1
sS'patchLangBundlesRequiresY'
p1570
I1
sS'yvpstateendscreen'
p1571
I2
sS'7'
p1572
I2
sS'Lh2lineheight2appletp63794'
p1573
I1
sS'4px'
p1574
I5
sS'ImageLoaderLoadedmoztransitionduration2sotransitionduration2swebkittransitionduration2stransitionduration2smoztransitionpropertyopacityotransitionpropertyopacitywebkittransitionpropertyopacitytransitionpropertyopacitymoztransitiontimingfunctioneaseoutotransitiontimingfunctioneaseoutwebkittransitiontimingfunctioneaseouttransitiontimingfunctioneaseoutStencil'
p1575
I1
sS'End50right50appletp63794'
p1576
I1
sS'Maw70maxwidth70appletp63794'
p1577
I1
sS'Mstartneg20marginleft20pxappletp63794'
p1578
I1
sS'rapidPageConfigrapidEarlyConfigkeysbh'
p1579
I1
sS'rapidPageConfigrapidEarlyConfigkeysbw'
p1580
I1
sS'windowAfcontextlang'
p1581
I3
sS'base'
p1582
I2
sS'My0marginbottom0appletp63794'
p1583
I1
sS'O0outline0appletp63794'
p1584
I1
sS'ET'
p1585
I1
sS'adLT'
p1586
I1
sS'posItemconf'
p1587
I2
sS'People'
p1588
I1
sS'windowpendingAdsspliceadIndex'
p1589
I1
sS'slotID'
p1590
I4
sS'Years'
p1591
I1
sS'Breakthrough'
p1592
I2
sS'caption'
p1593
I1
sS'moztransition'
p1594
I1
sS'modulesAft2Container'
p1595
I1
sS'Bdb0borderbottom0appletp63794'
p1596
I1
sS'Z10zindex10appletp63794'
p1597
I1
sS'top'
p1598
I13
sS'Mstart14marginleft14pxappletp63794'
p1599
I1
sS'major'
p1600
I1
sS'dont'
p1601
I6
sS'Vasupverticalalignsuperappletp63794'
p1602
I1
sS'posId'
p1603
I1
sS'Fri'
p1604
I1
sS'Wpx8width8pxappletp63794'
p1605
I1
sS'Yon'
p1606
I1
sS'adIts'
p1607
I1
sS'Mtneg1margintop1pxappletp63794'
p1608
I1
sS'TL1'
p1609
I1
sS'heads'
p1610
I1
sS'LRECmyadsLRECbaseMASTmyadsMASTTL1myadsTL1TXTLmyadsTXTLLREC0hladLREC0MON0hladMON0MAST0hladMAST0LDRB0hladLDRB0SPL20hladSPL20SPL0hladSPL0'
p1611
I1
sS'jet'
p1612
I1
sS'h5HlViewer'
p1613
I1
sS'divorce'
p1614
I1
sS'Pb2paddingbottom2pxappletp63794'
p1615
I1
sS'YUIusenodebase'
p1616
I1
sS'adSendDoneWhy'
p1617
I1
sS'W40width40width395appletp63794'
p1618
I1
sS'15sotransitionheight'
p1619
I1
sS'erupted'
p1620
I1
sS'Hopes'
p1621
I1
sS'Bdblrs100borderbottomleftradius100pxappletp63794'
p1622
I1
sS'UTF8LbCloseIconiconsharecloseiconsarrowiconsslideshowiconbackgroundcolortransparentbackgroundimageurlhttpssyimgcomospublishimagesnews2014042365fcff60cb2311e3bead55c0602d5659iconssb930b067eepngbackgroundrepeatnorepeatShare'
p1623
I1
sS'selling'
p1624
I1
sS'passed'
p1625
I1
sS'relationship'
p1626
I1
sS'Ex39s'
p1627
I1
sS'resultspaceID'
p1628
I1
sS'typechangetheme'
p1629
I1
sS'includeOnlyAft2'
p1630
I1
sS'Maw15maxwidth15appletp63794'
p1631
I1
sS'muscled'
p1632
I2
sS'typeubasda'
p1633
I1
sS'windowaddEventListener'
p1634
I3
sS'Penpointereventsnoneappletp63794'
p1635
I1
sS'Hnappletp63794'
p1636
I1
sS'deleteprefetchedtxtlindex'
p1637
I1
sS'Often'
p1638
I1
sS'transparentborderright5px'
p1639
I1
sS'96989f'
p1640
I2
sS'Listnliststyletypenoneappletp63794'
p1641
I1
sS'darlaFetchPerfregion'
p1642
I1
sS'documentgetElementsByTagNamescript0'
p1643
I1
sS'store'
p1644
I1
sS'Bdtrrs0bordertoprightradius0appletp63794'
p1645
I1
sS'Bdclsbordercollapseseparateappletp63794'
p1646
I1
sS'ConFinishPosRender'
p1647
I1
sS'rgba000058yui3skinsam'
p1648
I1
sS'olineargradientright'
p1649
I1
sS'datastartRender'
p1650
I1
sS'Lh12lineheight12appletp63794'
p1651
I1
sS'512100'
p1652
I1
sS'fontsize11px'
p1653
I2
sS'Vatverticalaligntopappletp63794'
p1654
I1
sS'Mstartneg18marginleft18pxappletp63794'
p1655
I1
sS'Vattverticalaligntexttopappletp63794'
p1656
I1
sS'Wpx24width24pxappletp63794'
p1657
I1
sS'mstransform'
p1658
I1
sS'colorstop52rgba0000'
p1659
I1
sS'null'
p1660
I6
sS'Fool'
p1661
I2
sS'Fw100fontweight100fontweightnormalappletp63794'
p1662
I1
sS'bookID'
p1663
I4
sS'Ovyhoverflowyhiddenappletp63794'
p1664
I1
sS'nonexp'
p1665
I4
sS'httpssyimgcomlqlib3pmcs02js'
p1666
I1
sS'Vcvisibilitycollapseappletp63794'
p1667
I1
sS'h3fontsize16pxfontsize16remhlviewer'
p1668
I1
sS'hasExternal'
p1669
I4
sS'MScursiveappletp63794'
p1670
I1
sS'Mstart12marginleft12pxappletp63794'
p1671
I1
sS'Mendneg18marginright18pxappletp63794'
p1672
I1
sS'rapidInstancebeaconPerformanceDataperfData'
p1673
I1
sS'Mstart16marginleft16pxappletp63794'
p1674
I1
sS'Mend6marginright6pxappletp63794'
p1675
I1
sS'Didisplayinlineappletp63794'
p1676
I1
sS'lhRecordAFT1'
p1677
I1
sS'afocus'
p1678
I1
sS'play'
p1679
I2
sS'index'
p1680
I2
sS'Thu'
p1681
I1
sS'sets'
p1682
I1
sS'reach'
p1683
I1
sS'Px6paddingright6pxpaddingleft6pxappletp63794'
p1684
I1
sS'jsstreamcontentlinkfCmblueTrump'
p1685
I1
sS'windowadPerfBeaconDatapositionshasOwnPropertyi'
p1686
I2
sS'72'
p1687
I1
sS'posSize'
p1688
I2
sS'position'
p1689
I15
sS'The'
p1690
I8
sS'nnlibmetrogmyyafappletbasemodel003js'
p1691
I1
sS'Finds'
p1692
I1
sS'78'
p1693
I5
sS'58pxminwidth980pxhlviewer'
p1694
I1
sS'Bd0border0appletp63794'
p1695
I1
sS'avisitedcolor188fffhlviewer'
p1696
I1
sS'yui3aclistitemactive'
p1697
I1
sS'barred'
p1698
I2
sS'My6margintop6pxmarginbottom6pxappletp63794'
p1699
I1
sS'7241469'
p1700
I1
sS'clean'
p1701
I1
sS'darlaPositionPerfrenderEnd'
p1702
I1
sS'P18padding18pxappletp63794'
p1703
I1
sS'Mtneg18margintop18pxappletp63794'
p1704
I1
sS'particularly'
p1705
I1
sS'Ovaoverflowautoappletp63794'
p1706
I1
sS'Note5'
p1707
I1
sS'men\xe2\x80\x99s'
p1708
I1
sS'Tblftablelayoutfixedappletp63794'
p1709
I1
sS'Tajtextalignjustifyappletp63794'
p1710
I1
sS'MathroundmodalFetchEnd0startTime'
p1711
I1
sS'YUIaddloaderapesocialfunctionetYUIEnveversionmodulesYUIEnveversionmodulesemixYUIEnveversionmodulesafsocialgroupapesocialrequiresVERSIONrequiresloaderbase'
p1712
I1
sS'strmheadlinelabel'
p1713
I1
sS'windowperformanceclearMeasures'
p1714
I2
sS'22px'
p1715
I1
sS'srt2'
p1716
I3
sS'Bdtlrsbordertopleftradius3pxappletp63794'
p1717
I1
sS'failed'
p1718
I1
sS'plastchildmarginbottom0importanthlviewer'
p1719
I1
sS'VIC'
p1720
I1
sS'8'
p1721
I2
sS'Lh01lineheight1appletp63794'
p1722
I1
sS'modaltooltiphOp1opacity1importantcmodalredcolorff156flrecbeforeloadingwidth300pxheight250pxborder1px'
p1723
I1
sS'Newmonospaceappletp63794'
p1724
I1
sS'serveType'
p1725
I4
sS'windowperfMarkPSTMSGVIDSTART'
p1726
I1
sS'Favorite'
p1727
I1
sS'pageloadValidAds'
p1728
I1
sS'windownavStart'
p1729
I1
sS'typemyycontentdb'
p1730
I1
sS'webkittransform'
p1731
I1
sS'yvpstreamyvpstateendscreen'
p1732
I1
sS'Trump\xe2\x80\x99s'
p1733
I1
sS'emails'
p1734
I1
sS'Plaque'
p1735
I1
sS'mslineargradienttop'
p1736
I2
sS'perfBackfillAd'
p1737
I1
sS'000HlViewer'
p1738
I1
sS'collapsed'
p1739
I1
sS'YMediaAfrapid'
p1740
I3
sS'remove'
p1741
I1
sS'validPositions'
p1742
I2
sS'Mtneg20margintop20pxappletp63794'
p1743
I1
sS'100colorstop0rgba0000colorstop100rgba00095backgroundmozlineargradientrgba0000rgba00095backgroundwebkitlineargradientrgba0000rgba00095backgroundlineargradientrgba0000rgba00095HlViewer'
p1744
I1
sS'useNativeStartRender'
p1745
I1
sS'YUIapplyConfigmodulesIntlPolyfillfullpathhttpsu002Fu002Fsyimgcomu002Fzzu002Fcomboyuiplatformu002Fintlu002F014u002FIntlminjsyuiplatformu002Fintlu002F014u002Flocaledatau002Fjsonpu002FlangjsconditionnameIntlPolyfilltriggerintlmessageformattestfunction'
p1746
I1
sS'Wpx20width20pxappletp63794'
p1747
I1
sS'Fsifontstyleitalicappletp63794'
p1748
I1
sS'Py20paddingtop20pxpaddingbottom20pxappletp63794'
p1749
I1
sS'wrote'
p1750
I1
sS'Mstartneg16marginleft16pxappletp63794'
p1751
I1
sS'DARLAposSettingsdata'
p1752
I1
sS'set'
p1753
I1
sS'bct1'
p1754
I1
sS'Pend16paddingright16pxappletp63794'
p1755
I1
sS'jsslideritemphotohlviewer'
p1756
I1
sS'CardItem'
p1757
I3
sS'lot'
p1758
I1
sS'Lh09lineheight9appletp63794'
p1759
I1
sS'myYahoostartTime'
p1760
I1
sS'windowperformancegetEntriesByNameMODALFETCHEND'
p1761
I1
sS'customPerfData'
p1762
I2
sS'typefp'
p1763
I1
sS'yvpstartscreenoverflowhiddenhlviewer'
p1764
I1
sS'locationhostname'
p1765
I1
sS'windowLHrecordma'
p1766
I1
sS'Pstart30paddingleft30pxappletp63794'
p1767
I1
sS'24xb0f'
p1768
I1
sS'Triwebkittextrenderinginheritmoztextrenderinginheritmstextrenderinginheritotextrenderinginherittextrenderinginheritappletp63794'
p1769
I1
sS'e91857'
p1770
I6
sS'Tastarttextalignleftappletp63794'
p1771
I1
sS'pageloadNonCollapsedAds'
p1772
I1
sS'adRenderComplete'
p1773
I1
sS'hidemeta'
p1774
I1
sS'available'
p1775
I2
sS'fallbackDiv'
p1776
I8
sS'verticalalign'
p1777
I1
sS'Sans'
p1778
I1
sS'FixedHeadertop100pxhlviewer'
p1779
I1
sS'hlAdsCustom'
p1780
I1
sS'sold'
p1781
I1
sS'Startaleftautoimportantappletp63794'
p1782
I1
sS'Ttltexttransformlowercaseappletp63794'
p1783
I1
sS'doesn39t'
p1784
I1
sS'aircraft'
p1785
I2
sS'Mt60margintop60pxappletp63794'
p1786
I1
sS'W15width15width148appletp63794'
p1787
I1
sS'relevantIts'
p1788
I1
sS'Scholarship'
p1789
I1
sS'T10top10appletp63794'
p1790
I1
sS'resultpvid'
p1791
I1
sS'Pt1paddingtop1pxappletp63794'
p1792
I1
sS'YconfigglobalIntl'
p1793
I1
sS'datamodulesReport'
p1794
I1
sS'barely'
p1795
I2
sS'windowYAFTisInitialized'
p1796
I1
sS'sensitive'
p1797
I1
sS'getRequiresapplythis'
p1798
I1
sS'fallbackDivinnerHTML'
p1799
I1
sS'Tells'
p1800
I1
sS'MathroundwindowperformancegetEntriesByNameMODALADEVENTSTART0startTime'
p1801
I1
sS'AdViewer'
p1802
I1
sS'afPerfHeadStartnew'
p1803
I1
sS'Wpx18width18pxappletp63794'
p1804
I1
sS'typechangelayout'
p1805
I1
sS'community'
p1806
I1
sS'Mb18marginbottom18pxappletp63794'
p1807
I1
sS'0marginleft4pxZ6zindex6Z7zindex7Z8zindex8Z9zindex9fixZindexzindex5importantviewerright'
p1808
I1
sS'Disney'
p1809
I1
sS'windowpendingAdslength'
p1810
I1
sS'ps'
p1811
I2
sS'modalasidedisplayinlineblockwidth300pxpositionrelativeverticalaligntopzindex1hlviewer'
p1812
I1
sS'DefenseNewscom'
p1813
I1
sS'colorstop32rgba0000'
p1814
I1
sS'darlaFetchPerfbucket'
p1815
I1
sS'documentaddEventListenerDOMContentLoaded'
p1816
I2
sS'perfusertime'
p1817
I3
sS'Protection'
p1818
I1
sS'Updates'
p1819
I1
sS'Tduhhovertextdecorationunderlineappletp63794'
p1820
I1
sS'collected'
p1821
I1
sS'Dtbrdisplaytablerowappletp63794'
p1822
I1
sS'getRequires'
p1823
I1
sS'gay'
p1824
I1
sS'fire'
p1825
I1
sS'Px8paddingright8pxpaddingleft8pxappletp63794'
p1826
I1
sS'else'
p1827
I12
sS'silencer'
p1828
I1
sS'Bdrs0borderradius0appletp63794'
p1829
I1
sS'lhRecordVIC2'
p1830
I1
sS'Cute'
p1831
I1
sS'Bdbrrs0borderbottomrightradius0appletp63794'
p1832
I1
sS'Old'
p1833
I2
sS'AFT2'
p1834
I1
sS'solid'
p1835
I19
sS'Vablverticalalignbaselineappletp63794'
p1836
I1
sS'expanded'
p1837
I1
sS'Mstart10marginleft10pxappletp63794'
p1838
I1
sS'breakingnewsgradient2'
p1839
I1
sS'breakingnewsgradient1'
p1840
I1
sS'clearMarksfalse'
p1841
I1
sS'hladLRECheight250pxhlviewer'
p1842
I1
sS'behavior'
p1843
I4
sS'involved'
p1844
I1
sS'animated'
p1845
I1
sS'windowperfMarkMODALADEVENTSTART'
p1846
I1
sS'Endarightautoimportantappletp63794'
p1847
I1
sS'Mathrounddataaft'
p1848
I1
sS'userProvidedData'
p1849
I4
sS'46pxReaderopen'
p1850
I1
sS'roundedimg'
p1851
I2
sS'resourceTimingAssets'
p1852
I2
sS'strmupsellgradientleftDisabled'
p1853
I1
sS'rid'
p1854
I3
sS'34'
p1855
I1
sS'AdshowAdShow'
p1856
I4
sS'darlaFetchPerf'
p1857
I1
sS'funny'
p1858
I1
sS'Gov'
p1859
I1
sS'Bgctbackgroundcolortransparentappletp63794'
p1860
I1
sS'Mt0appletp63794'
p1861
I1
sS'posItemconfclean'
p1862
I2
sS'eclientWidth'
p1863
I1
sS'firearms'
p1864
I3
sS'My16margintop16pxmarginbottom16pxappletp63794'
p1865
I1
sS'9'
p1866
I2
sS'Clbclearbothappletp63794'
p1867
I1
sS'Gift'
p1868
I1
sS'W100width100appletp63794'
p1869
I1
sS'Mb2marginbottom2pxappletp63794'
p1870
I1
sS'darlaFetchPerfwsStart'
p1871
I1
sS'Op33opacity33filteralphaopacity33appletp63794'
p1872
I1
sS'Movies'
p1873
I2
sS'moment'
p1874
I1
sS'Zazindexautoimportantappletp63794'
p1875
I1
sS'h1HlViewer'
p1876
I1
sS'contractors'
p1877
I2
sS'Lh125lineheight125appletp63794'
p1878
I1
sS'bodyTagclassNamereplacemastAdExpanded'
p1879
I1
sS'mastAdExpanded'
p1880
I1
sS'httpbeapbcyahoocomafbv100bs15ir45r6bgidjmTVQDk4LjHHbFsHU5jMkgKkMTAuNwAAAACljpkKst1402537233026922srv1si13303551adv25941429036ct25li3239250051exp1402544433026922cr4154984551pbid25372728133v10altypetypecmntcmntsubosubor10'
p1881
I4
sS'spent'
p1882
I1
sS'Tblatablelayoutautoappletp63794'
p1883
I1
sS'strmrightmenuroundup'
p1884
I5
sS'Lh07lineheight7appletp63794'
p1885
I1
sS'startColorstrff7617'
p1886
I1
sS'afappletbaseview'
p1887
I1
sS'ambassador'
p1888
I1
sS'Mend16marginright16pxappletp63794'
p1889
I1
sS'jsstreamcmntuphover'
p1890
I1
sS'positionindexOfUBALREC'
p1891
I1
sS'jsstreamupsellleftDisabled'
p1892
I1
sS'atomic'
p1893
I1
sS'questions'
p1894
I1
sS'M10margin10pxappletp63794'
p1895
I1
sS'fcalign'
p1896
I1
sS'cut'
p1897
I1
sS'sponsorSlugNodelength'
p1898
I2
sS'ma'
p1899
I2
sS'TwitterBtncolor00acedShareBtns'
p1900
I1
sS'Football'
p1901
I1
sS'functionroot'
p1902
I1
sS'signals'
p1903
I1
sS'posInfosize'
p1904
I1
sS'location'
p1905
I1
sS'h3fontsize22pxfontsize22remmarginbottom6emhlviewer'
p1906
I1
sS'afappletcontentsettingsviewstencilselectboxstenciltoggle'
p1907
I1
sS'input'
p1908
I1
sS'mod'
p1909
I2
sS'customers'
p1910
I2
sS'emergency'
p1911
I1
sS'Did'
p1912
I1
sS'fadeOut'
p1913
I5
sS'Pstart12paddingleft12pxappletp63794'
p1914
I1
sS'jsstreamrelatedcontent'
p1915
I2
sS'modalactionstop11pxleft540pxwidth100pximportanthlviewer'
p1916
I1
sS'competitively'
p1917
I1
sS'viewerwrapperborderradius6pxmargin1pximportantpaddingbottom30pxviewerrightstreamsparse'
p1918
I1
sS'modaltooltiphHaheightautoimportantmodaltooltiphover'
p1919
I1
sS'OK'
p1920
I2
sS'YUIapplyConfiggroupsapepipecombinetruefiltermincomboSepcomboBasehttpssyimgcomzzcombobasehttpssyimgcomosmittdapepipe0064rootosmittdapepipe0064'
p1921
I1
sS'lhRecordAFT2'
p1922
I1
sS'signal'
p1923
I1
sS'Px1paddingright1pxpaddingleft1pxappletp63794'
p1924
I1
sS'Vvvisibilityvisibleappletp63794'
p1925
I1
sS'Fzxsfontsize11pxappletp63794'
p1926
I1
sS'Fwlrfontweightlighterappletp63794'
p1927
I1
sS'P10padding10pxappletp63794'
p1928
I1
sS'functionusesABP'
p1929
I1
sS'uhsearchboxmsclear'
p1930
I1
sS'Kansasquot'
p1931
I1
sS'colorstop65ff9b00'
p1932
I1
sS'YMediaGlobalfireadsbeacon'
p1933
I1
sS'uhghostbox'
p1934
I1
sS'erupts'
p1935
I1
sS'yui3aclistitemhover'
p1936
I1
sS'typesignoutcta'
p1937
I1
sS'nnlibmetrogmyyvideomanager00140js'
p1938
I1
sS'jsslideritembordertop1px'
p1939
I1
sS'afappletbaseviewaftrans'
p1940
I1
sS'P16padding16pxappletp63794'
p1941
I1
sS'Mb20marginbottom20pxappletp63794'
p1942
I1
sS'Ovxhoverflowxhiddenappletp63794'
p1943
I1
sS'Cutler\xe2\x80\x99s'
p1944
I1
sS'jsactivitylistitem'
p1945
I3
sS'nnlibmetrogmyypureclientdarla004js'
p1946
I1
sS'LeadlCoverOverlay'
p1947
I2
sS'processing'
p1948
I1
sS'Dprefetched'
p1949
I1
sS'Times'
p1950
I1
sS'HeadlineBoxpositionabsoluteHlViewer'
p1951
I1
sS'Wpx4width4pxappletp63794'
p1952
I1
sS'chanting'
p1953
I1
sS'linthchild1'
p1954
I2
sS'linthchild2'
p1955
I2
sS'linthchild3'
p1956
I2
sS'metrics'
p1957
I1
sS'Taylor'
p1958
I1
sS'Listsliststyletypesquareappletp63794'
p1959
I1
sS'Mb8marginbottom8pxappletp63794'
p1960
I1
sS'man39s'
p1961
I1
sS'msgname'
p1962
I6
sS'Pstart4paddingleft4pxappletp63794'
p1963
I1
sS'Ck2Rate100'
p1964
I1
sS'8px'
p1965
I1
sS'Comforter'
p1966
I1
sS'block'
p1967
I4
sS'otransition'
p1968
I1
sS'T25top25appletp63794'
p1969
I1
sS'H0height0appletp63794'
p1970
I1
sS'Bears'
p1971
I1
sS'Shay'
p1972
I1
sS'Ovxaoverflowxautoappletp63794'
p1973
I1
sS'minwidth'
p1974
I1
sS'c8c8c8hlviewer'
p1975
I1
sS'Hawking'
p1976
I3
sS'visitsp'
p1977
I1
sS'Pt0appletp63794'
p1978
I1
sS'thinyui3skinsam'
p1979
I1
sS'apparently'
p1980
I1
sS'question'
p1981
I1
sS'custom'
p1982
I3
sS'afcookie'
p1983
I1
sS'homemade'
p1984
I2
sS'Miw80minwidth80appletp63794'
p1985
I1
sS'Miw0minwidth0appletp63794'
p1986
I1
sS'record'
p1987
I1
sS'comboBase'
p1988
I2
sS'h4fontsize15pxfontsize15remhlviewer'
p1989
I1
sS'fallbackDivclassName'
p1990
I1
sS'elsewhere'
p1991
I1
sS'Px4paddingright4pxpaddingleft4pxappletp63794'
p1992
I1
sS'mozlineargradient45deg'
p1993
I2
sS'nnlibmetrogpagenavaddpage0027js'
p1994
I1
sS'typemyyscroller'
p1995
I1
sS'rgba255255255090'
p1996
I2
sS'delta'
p1997
I2
sS'Ashton'
p1998
I1
sS'Posrpositionrelativeappletp63794'
p1999
I1
sS'rgba255255255099'
p2000
I2
sS'rapidConfig'
p2001
I1
sS'info'
p2002
I1
sS'Mih100minheight100height100appletp63794'
p2003
I1
sS'fdb'
p2004
I4
sS'pslength'
p2005
I3
sS'ContentBody'
p2006
I20
sS'FffontfamilyHelvetica'
p2007
I1
sS'utm'
p2008
I3
sS'ul'
p2009
I2
sS'easeinouthlviewer'
p2010
I1
sS'AdsCareersHelpFeedback'
p2011
I1
sS'windowadCallStart'
p2012
I1
sS'called'
p2013
I1
sS'typenux'
p2014
I1
sS'jslbprevtop50zindex1width28pxcolor878c91fontsize30pxmargintop17pxhlviewer'
p2015
I1
sS'Bgnbackground0'
p2016
I1
sS'defined'
p2017
I1
sS'Miw90minwidth90appletp63794'
p2018
I1
sS'transparentborderleft40px'
p2019
I1
sS'Mendneg4marginright4pxappletp63794'
p2020
I1
sS'splashcollapse'
p2021
I1
sS'endColorstrff353cGradientType1'
p2022
I1
sS'CreditHlViewer'
p2023
I1
sS'typeabuevent'
p2024
I1
sS'rally'
p2025
I1
sS'perfModalVideoInit'
p2026
I1
sS'TV'
p2027
I2
sS'windowperformancegetEntriesByNameMODALOPEN0startTime'
p2028
I2
sS'image'
p2029
I3
sS'nnlibmetrogpagenavaddmodule0016js'
p2030
I1
sS'zindex'
p2031
I1
sS'darlaPositionPerfpstmsg'
p2032
I1
sS'Px20paddingright20pxpaddingleft20pxappletp63794'
p2033
I1
sS'Listen'
p2034
I1
sS'afappletcontentview'
p2035
I1
sS'comboSep'
p2036
I2
sS'reportedly'
p2037
I1
sS'darlaFetchPerfeventStart'
p2038
I1
sS'Bdblrs300borderbottomleftradius300pxappletp63794'
p2039
I1
sS'Mendneg6marginright6pxappletp63794'
p2040
I1
sS'prosecution'
p2041
I1
sS'progidDXImageTransformMicrosoftgradient'
p2042
I4
sS'62825'
p2043
I1
sS'serveTime'
p2044
I4
sS'helping'
p2045
I1
sS'Mend70marginright70pxappletp63794'
p2046
I1
sS'Bgzabackgroundsizeautoappletp63794'
p2047
I1
sS'fighter'
p2048
I2
sS'yui3aclistitemhoverbackgroundbfdaffyui3skinsam'
p2049
I1
sS'age'
p2050
I1
sS'Curpcursorpointerappletp63794'
p2051
I1
sS'As'
p2052
I1
sS'train'
p2053
I1
sS'requires'
p2054
I59
sS'rtAdDone'
p2055
I1
sS'Zoom1zoom1'
p2056
I1
sS'EditorialLeftContentBody'
p2057
I1
sS'Yondomready'
p2058
I1
sS'Mbneg12marginbottom12pxappletp63794'
p2059
I1
sS'phlviewer'
p2060
I3
sS'End75right75appletp63794'
p2061
I1
sS'results'
p2062
I2
sS'adIndex'
p2063
I3
sS'15smoztransitionheight'
p2064
I1
sS'alien'
p2065
I2
sS'rtAdStart'
p2066
I1
sS'lbmetacontentexpand'
p2067
I2
sS'typemyymailmainview'
p2068
I1
sS'darlaFetchPerfsite'
p2069
I1
sS'Mstart18marginleft18pxappletp63794'
p2070
I1
sS'father39s'
p2071
I1
sS'Business'
p2072
I1
sS'Miw25minwidth25appletp63794'
p2073
I1
sS'Fz0fontsize0appletp63794'
p2074
I1
sS'send'
p2075
I2
sS'NYSELMT'
p2076
I1
sS'eventName'
p2077
I7
sS'Joint'
p2078
I1
sS'TrgpwebkittextrenderinggeometricPrecisionmoztextrenderinggeometricPrecisionmstextrenderinggeometricPrecisionotextrenderinggeometricPrecisiontextrenderinggeometricPrecisionappletp63794'
p2079
I1
sS'YUIaddloadertdappletviewerfunctionetYUIEnveversionmodulesYUIEnveversionmodulesemixYUIEnveversionmodulestdadsmodelgrouptdappletviewerrequiresafsyncbasebuildmodelafbeacontdappletviewertemplatesadfdbthankyougrouptdappletviewerrequirestemplatebasedusttdappletviewertemplatesadsstorygrouptdappletviewerrequirestemplatebasedusttdappletviewertemplatescardsgrouptdappletviewerrequirestemplatebasedusttdappletviewertemplatesdebugtdappletviewertemplatesfallbacktdappletviewertemplatesfootertdappletviewertemplatesmodalasidemegatdappletviewertemplatescarouselgrouptdappletviewerrequirestemplatebasedusttdappletviewertemplatescontentbodygrouptdappletviewerrequirestemplatebasedusttdappletviewertemplatesmagslideshowtdappletviewertemplatesadsstorytdappletviewertemplatescontentbodymegagrouptdappletviewerrequirestemplatebasedusttdappletviewertemplatesmagslideshowtdappletviewertemplatescreditgrouptdappletviewerrequirestemplatebasedusttdappletviewertemplatesdebuggrouptdappletviewerrequirestemplatebasedusttdappletviewertemplatesdrawerfeedbackgrouptdappletviewerrequirestemplatebasedusttdappletviewertemplatesfallbackgrouptdappletviewerrequirestemplatebasedusttdappletviewertemplatesfootergrouptdappletviewerrequirestemplatebasedusttdappletviewertemplatesheadergrouptdappletviewerrequirestemplatebasedusttdappletviewertemplatessharebtnsmegatdappletviewertemplatesheaderadsgrouptdappletviewerrequirestemplatebasedusttdappletviewertemplateslightboxgrouptdappletviewerrequirestemplatebasedusttdappletviewertemplatescarouseltdappletviewertemplateslightboxmegagrouptdappletviewerrequirestemplatebasedusttdappletviewertemplatescarouseltdappletviewertemplatesthumbnailitemstdappletviewertemplatesmagslideshowgrouptdappletviewerrequirestemplatebasedusttdappletviewertemplatesmaingrouptdappletviewerrequirestemplatebasedusttdappletviewertemplatescardstdappletviewertemplateslightboxtdappletviewertemplatesmodalasidemegagrouptdappletviewerrequirestemplatebasedusttdappletviewertemplatesmodallrecsmegatdappletviewertemplatesmodallrecsmegagrouptdappletviewerrequirestemplatebasedusttdappletviewertemplatesrebloggrouptdappletviewerrequirestemplatebasedusttdappletviewertemplatesrelatedvideosgrouptdappletviewerrequirestemplatebasedusttdappletviewertemplatessharebtnsgrouptdappletviewerrequirestemplatebasedusttdappletviewertemplatessharebtnsmegagrouptdappletviewerrequirestemplatebasedusttdappletviewertemplatessidekicktvgrouptdappletviewerrequirestemplatebasedusttdappletviewertemplatesslideshowgrouptdappletviewerrequirestemplatebasedusttdappletviewertemplatesheadertdappletviewertemplateslightboxmegatdappletviewertemplatescontentbodymegatdappletviewertemplatesmodalasidemegatdappletviewertemplatesstorycovertdappletviewertemplatescontentbodytdappletviewertemplatesstorygrouptdappletviewerrequirestemplatebasedusttdappletviewertemplatesheadertdappletviewertemplatescontentbodymegatdappletviewertemplatesmodalasidemegatdappletviewertemplatesstorycovertdappletviewertemplatescontentbodytdappletviewertemplatesstorycovergrouptdappletviewerrequirestemplatebasedusttdappletviewertemplatesheaderadstdappletviewertemplatesvideotdappletviewertemplatesheadertdappletviewertemplatesthumbnailitemsgrouptdappletviewerrequirestemplatebasedusttdappletviewertemplatesvideogrouptdappletviewerrequirestemplatebasedusttdappletviewertemplatesheadertdappletviewertemplatescontentbodymegatdappletviewertemplatesmodalasidemegatdappletviewertemplatesheaderadstdappletviewertemplatescontentbodytdappletviewertemplatesvideoclustergrouptdappletviewerrequirestemplatebasedusttdrelatedvideomodelgrouptdappletviewerrequiresafsyncbasebuildmodelafbeacontdvieweradsgrouptdappletviewerrequiresafbeaconafconfigafeventtdviewermainviewgrouptdappletviewerrequiresafappletviewafbeaconafcacheafconfigafeventstencilangusslidereventtaptdvieweradstdviewerslideshowtdviewermodelgrouptdappletviewerrequiresafcacheafsyncbasebuildmodelafbeacontdviewerslideshowgrouptdappletviewerrequiresstencilangusslidereventtapVERSIONrequiresloaderbase'
p2080
I1
sS'dislike'
p2081
I1
sS'splashStart'
p2082
I2
sS'nnlibmetrogsdasdarotate0025js'
p2083
I1
sS'windowadLT'
p2084
I1
sS'Celebrity'
p2085
I4
sS'YUIaddloadertdappletsportscountdownfunctionetYUIEnveversionmodulesYUIEnveversionmodulesemixYUIEnveversionmodulestdappletsportscountdownmainviewgrouptdappletsportscountdownrequiresafappletviewtdappletsportscountdownmodelgrouptdappletsportscountdownrequiresmodelafsynctdappletsportscountdowntemplatescountdowngrouptdappletsportscountdownrequirestemplatebasedustVERSIONrequiresloaderbase'
p2086
I1
sS'Pend6paddingright6pxappletp63794'
p2087
I1
sS'reverberate'
p2088
I1
sS'Lh08lineheight8appletp63794'
p2089
I1
sS'refsp'
p2090
I1
sS'Charlotte'
p2091
I1
sS'Maw99maxwidth99appletp63794'
p2092
I1
sS'Render'
p2093
I1
sS'httpswwwyahoocom'
p2094
I1
sS'positions'
p2095
I2
sS'button'
p2096
I1
sS'Related'
p2097
I1
sS'RevealNestedon'
p2098
I1
sS'try'
p2099
I5
sS'strmupsellgradientright'
p2100
I1
sS'IE10'
p2101
I6
sS'adModulesadnorthbasemyadsFPADbasemyadsLRECbasemyadsTL1myadsMASThladLREC0hladMAST0hladLDRB0hladSPL20myadsTXTLhladSPL0'
p2102
I1
sS'Bdtrrs100bordertoprightradius100pxappletp63794'
p2103
I1
sS'Px10paddingright10pxpaddingleft10pxappletp63794'
p2104
I1
sS'ConFinishParse'
p2105
I1
sS'pmarginbottom11emmargintop0hlviewer'
p2106
I1
sS'lhRecordxAFT'
p2107
I1
sS'animationname'
p2108
I3
sS'webkitanimationfillmode'
p2109
I1
sS'listviewitemdisplayinlineblockzoom1letterspacingnormalwordspacingnormaltextrenderingautoverticalaligntophlviewer'
p2110
I1
sS'segBlob'
p2111
I1
sS'indexcountcolor878c91positionabsoluteleft12pxbottom7pxwebkitfontsmoothingantialiasedhlviewer'
p2112
I1
sS'Mt18margintop18pxappletp63794'
p2113
I1
sS'video'
p2114
I1
sS'Start100left100appletp63794'
p2115
I1
sS'Tooltips'
p2116
I1
sS'Pt18paddingtop18pxappletp63794'
p2117
I1
sS'power'
p2118
I1
sS'typesdarotate'
p2119
I1
sS'YUIapplyConfiggroupsapeappletcombinetruefiltermincomboSepcomboBasehttpssyimgcomzzcombobasehttpssyimgcomosmittdapeapplet00209rootosmittdapeapplet00209'
p2120
I1
sS'jsstreamsharepanel'
p2121
I1
sS'pendingAds'
p2122
I1
sS'typemyyrssjs'
p2123
I1
sS'Swift'
p2124
I1
sS'YUIaddloaderdusthelpersfunctionetYUIEnveversionmodulesYUIEnveversionmodulesemixYUIEnveversionmodulesdustgroupdusthelpersrequiresstencilimageloadermomentintlhelperdusthelperintles0groupdusthelpersrequiresintlmessageformatintlhelpergroupdusthelpersrequiresdusthelperintlintlmessageformates0groupdusthelpersmomentgroupdusthelpersVERSIONrequiresloaderbase'
p2125
I1
sS'modalOpen'
p2126
I2
sS'yaftConfigplugins'
p2127
I1
sS'women\xe2\x80\x99s'
p2128
I1
sS'Px14paddingright14pxpaddingleft14pxappletp63794'
p2129
I1
sS'M8margin8pxappletp63794'
p2130
I1
sS'modalFetchStart'
p2131
I2
sS'Curhecursorhelpappletp63794'
p2132
I1
sS'Pend18paddingright18pxappletp63794'
p2133
I1
sS'jslbnexthlviewer'
p2134
I2
sS'rootYUIconfig'
p2135
I2
sS'Collapseopened'
p2136
I1
sS'continuereadinghovercolor188FFFhlviewer'
p2137
I1
sS'talent'
p2138
I1
sS'33'
p2139
I1
sS'32'
p2140
I1
sS'larger'
p2141
I1
sS'37'
p2142
I1
sS'NeueHelveticaArialsansserif'
p2143
I2
sS'18px'
p2144
I1
sS'35xb0f'
p2145
I1
sS'windowadPerfBeaconDatapositionsi'
p2146
I1
sS'212213'
p2147
I1
sS'bucketSAEnabled'
p2148
I1
sS'hexagon'
p2149
I1
sS'Lhresetlineheightnormalappletp63794'
p2150
I1
sS'typeaddpage'
p2151
I1
sS'daTRK'
p2152
I1
sS'win'
p2153
I1
sS'modalFetchStartlength'
p2154
I1
sS'posInfobackfill'
p2155
I2
sS'Mend12marginright12pxappletp63794'
p2156
I1
sS'adID'
p2157
I4
sS'Treatment'
p2158
I1
sS'jsstreamupsellcarouselhover'
p2159
I2
sS'quotstealthquot'
p2160
I1
sS'startColorstr00000000'
p2161
I2
sS'rgba000058webkitboxshadow1px'
p2162
I1
sS'rapidPerfData'
p2163
I5
sS'Mstartneg4marginleft4pxappletp63794'
p2164
I1
sS'stream'
p2165
I1
sS'h4hlviewer'
p2166
I1
sS'Matters'
p2167
I1
sS'infomation'
p2168
I1
sS'Pt8paddingtop8pxappletp63794'
p2169
I1
sS'Lockheed'
p2170
I1
sS'Ck2E2ERate100'
p2171
I1
sS'webkitlineargradient45deg'
p2172
I2
sS'windowadPerfBeaconDatapositionsibackfill'
p2173
I2
sS'lhRecordAFTNOAD'
p2174
I1
sS'W55width55width548appletp63794'
p2175
I1
sS'Mx18marginright18pxmarginleft18pxappletp63794'
p2176
I1
sS'Lh21lineheight21appletp63794'
p2177
I1
sS'documentgetElementByIdposItemconfclean'
p2178
I2
sS'80px'
p2179
I4
sS'20pxcolor188FFFimportantfontweight700textdecorationnonehlviewer'
p2180
I1
sS'Ovyvoverflowyvisibleappletp63794'
p2181
I1
sS'women'
p2182
I1
sS'resultspushMathrounddatamodulesReportmoduleresourcesindexdurationFromNStart'
p2183
I1
sS'jsslideritem'
p2184
I1
sS'Bginbackgroundimagenoneappletp63794'
p2185
I1
sS'ride'
p2186
I1
sS'Video'
p2187
I1
sS'universe'
p2188
I1
sS'averages'
p2189
I1
sS'fetch'
p2190
I1
sS'Nicole'
p2191
I2
sS'typeappdeclarations'
p2192
I1
sS'abcd'
p2193
I1
sS'FPADcleanmyadsFPADdestmyadsFPADiframemetaSize1fdbtruesupportsresizeto1expovr1exppush1lyr1LRECposLRECcleanmyadsLRECdestmyadsLRECiframemetaSizetruew300h250fdbtruesupportsexpovr0lyr0MASTposMASTcleanmyadsMASTdestmyadsMASTiframefrexpIfrexprmxp0metaSizetruew970h250supportsexpovr1exppush1resizeto1closeBtnmode2useShow1adc0TL1posTL1idTL1cleanmyadsTL1destmyadsTL1iframew120h170frexpIfrexprmxp0cssadtl2b'
p2194
I1
sS'animationfillmode'
p2195
I1
sS'mozlineargradientleft'
p2196
I1
sS'Weatherstripping'
p2197
I1
sS'effectively'
p2198
I1
sS'Bgzctbackgroundsizecontainappletp63794'
p2199
I1
sS'nnlibmetrogmyyrapidworker11004js'
p2200
I1
sS'nnlibmetrogmyyafappletcontentsettingsview003js'
p2201
I1
sS'OffNetworkborder1px'
p2202
I1
sS'easeinoutwebkittransitionopacity'
p2203
I2
sS'Christmas'
p2204
I1
sS'lbmetatxtcontainerfullSlideshowLightbox'
p2205
I1
sS'lhRecordSCRH'
p2206
I1
sS'Wobbawordbreakbreakallappletp63794'
p2207
I1
sS'curAd'
p2208
I4
sS'Mx0marginleft0appletp63794'
p2209
I1
sS'intelligent'
p2210
I1
sS'Mt12margintop12pxappletp63794'
p2211
I1
sS'stock'
p2212
I2
sS'continuereadinghover'
p2213
I1
sS'YMediaAfEventfire'
p2214
I1
sS'fetchselectiveadlrec2'
p2215
I1
sS'Mstartneg12marginleft12pxappletp63794'
p2216
I1
sS'ConStartRequest'
p2217
I1
sS'highs'
p2218
I1
sS'jslbprevhoverbackground333opacity1hlviewer'
p2219
I1
sS'British'
p2220
I1
sS'nodeeventiopaneliobasetransitionjsonstringify'
p2221
I1
sS'quotsuper'
p2222
I1
sS'Mbneg14marginbottom14pxappletp63794'
p2223
I1
sS'npv'
p2224
I1
sS'Pend30paddingright30pxappletp63794'
p2225
I1
sS'Mstart0appletp63794'
p2226
I1
sS'fetchselectiveadlrec3'
p2227
I1
sS'darlaPositionPerfbackfill'
p2228
I1
sS'persuaded'
p2229
I1
sS'msgdata'
p2230
I6
sS'robot'
p2231
I4
sS'pmcrelatedtypemarginright10pxhlviewer'
p2232
I1
sS'Lh04lineheight4appletp63794'
p2233
I1
sS'Politics'
p2234
I4
sS'fallback'
p2235
I4
sS'windowperfMarkMODALADWSSTART'
p2236
I1
sS'107rgba000085'
p2237
I4
sS'Who'
p2238
I1
sS'Py12paddingtop12pxpaddingbottom12pxappletp63794'
p2239
I1
sS'stamped'
p2240
I1
sS'alignleftfloatleftmargin0'
p2241
I1
sS'modalasidesinglewillchangetransformhlviewer'
p2242
I1
sS'Nicki'
p2243
I1
sS'X'
p2244
I1
sS'Tdntextdecorationnoneimportantappletp63794'
p2245
I1
sS'OffNetworkhovercolorfffimportantbackground0078ffbordercolor0078ffhlviewer'
p2246
I1
sS'FixedHeadertransitionopacity'
p2247
I1
sS'Pt4paddingtop4pxappletp63794'
p2248
I1
sS'End25right25appletp63794'
p2249
I1
sS'dgetElementsByTagNamebody0'
p2250
I1
sS'li'
p2251
I1
sS'government39s'
p2252
I1
sS'pageMode'
p2253
I3
sS'copies'
p2254
I1
sS'quotinvisibilityquot'
p2255
I1
sS'YMediaAf'
p2256
I4
sS'NavStartdisplayblockFirstItem'
p2257
I1
sS'2013'
p2258
I1
sS'dad'
p2259
I1
sS'Pstart16paddingleft16pxappletp63794'
p2260
I1
sS'crash'
p2261
I1
sS'auto'
p2262
I8
sS'fallbackDivclassNamereplaceDn'
p2263
I1
sS'201C'
p2264
I2
sS'typewindowshadejs'
p2265
I1
sS'strmupsellgradientleft'
p2266
I1
sS'campaigner'
p2267
I1
sS'Mother'
p2268
I1
sS'startColorstre91857'
p2269
I1
sS'transparent'
p2270
I2
sS'canShowVisualReport'
p2271
I1
sS'Mx4marginright4pxmarginleft4pxappletp63794'
p2272
I1
sS'jsstreamupselllefthover'
p2273
I1
sS'mods'
p2274
I1
sS'Sam'
p2275
I2
sS'strmleft'
p2276
I4
sS'h4HlViewer'
p2277
I1
sS'afontsize13pxcolor020e65textdecorationnonevmtitlehover'
p2278
I1
sS'darlaFetchPerfmodalFetchStart'
p2279
I1
sS'darlaPositionPerfrenderStart'
p2280
I1
sS'mode'
p2281
I1
sS'10px'
p2282
I6
sS'rootYUIconfiglang'
p2283
I1
sS'jsstreamcommentcounterupdate'
p2284
I1
sS'Py1paddingtop1pxpaddingbottom1pxappletp63794'
p2285
I1
sS'Lh24lineheight24appletp63794'
p2286
I1
sS'From'
p2287
I1
sS'mslineargradientleft'
p2288
I1
sS'Pb0appletp63794'
p2289
I1
sS'documentdocumentElementclassName'
p2290
I1
sS'frequency'
p2291
I1
sS'yui3highlight'
p2292
I1
sS'windowperformancenow'
p2293
I8
sS'85'
p2294
I2
sS'Mb50marginbottom50pxappletp63794'
p2295
I1
sS'chaos'
p2296
I2
sS'Mxamarginrightautoimportantmarginleftautoimportantappletp63794'
p2297
I1
sS'IE69'
p2298
I4
sS'creativeID'
p2299
I4
sS'Ovxsoverflowxscrollappletp63794'
p2300
I1
sS'jsslideritemsinglerightrailbordertopnonehlviewer'
p2301
I1
sS'1402544433026'
p2302
I4
sS'sponsorSlugNode'
p2303
I4
sS'This'
p2304
I1
sS'Firefoxnbsp\xc2\xbb'
p2305
I1
sS'windowperfModalFetchStart'
p2306
I1
sS'b0b0b0borderradius2px'
p2307
I1
sS'ContentColMagOn'
p2308
I1
sS'5pxyui3aclistitemactiveoutlineafafaf'
p2309
I1
sS'8s'
p2310
I2
sS'45px'
p2311
I1
sS'typepartnerattenusforeseealive'
p2312
I1
sS'Mbneg16marginbottom16pxappletp63794'
p2313
I1
sS'ex39s'
p2314
I3
sS'64px'
p2315
I1
sS'navStart'
p2316
I1
sS'pvid'
p2317
I1
sS'maincolpaddingtop15pxhlviewer'
p2318
I1
sS'curAdparentElementclassNamereplacelrecbeforeloading'
p2319
I2
sS'Mb30marginbottom30pxappletp63794'
p2320
I1
sS'Trawebkittextrenderingautomoztextrenderingautomstextrenderingautootextrenderingautotextrenderingautoappletp63794'
p2321
I1
sS'Lh16lineheight16appletp63794'
p2322
I1
sS'End0right0appletp63794'
p2323
I1
sS'cosmologist'
p2324
I1
sS'scene'
p2325
I1
sS'Program'
p2326
I1
sS'Pstart2paddingleft2pxappletp63794'
p2327
I1
sS'pageParamsObject'
p2328
I3
sS'owning'
p2329
I1
sS'webkitanimationduration'
p2330
I1
sS'windowLH'
p2331
I3
sS'sidekickfpmargintop20pxhlviewer'
p2332
I1
sS'LbCloseIconbackgroundsizecoverwidth47pxheight47pxzindex202backgroundposition0'
p2333
I1
sS'For'
p2334
I1
sS'Thursday'
p2335
I1
sS'Shane'
p2336
I1
sS'data'
p2337
I5
sS'system'
p2338
I1
sS'MAST'
p2339
I3
sS'View'
p2340
I1
sS'T100top100appletp63794'
p2341
I1
sS'streamcollapse'
p2342
I1
sS'W25width25width245appletp63794'
p2343
I1
sS'162px'
p2344
I1
sS'lbmetacontentpaddingbottom30pxbackgroundfffSlideshowLightbox'
p2345
I1
sS'Wownwordwrapnormalimportantappletp63794'
p2346
I1
sS'biggest'
p2347
I1
sS'windowisModalOpen'
p2348
I11
sS'fontsize'
p2349
I3
sS'Mendneg1marginright1pxappletp63794'
p2350
I1
sS'Maw20maxwidth20appletp63794'
p2351
I1
sS'lhRecordAFT'
p2352
I2
sS'detection'
p2353
I1
sS'whiteListedAdsposId'
p2354
I1
sS'Mend40marginright40pxappletp63794'
p2355
I1
sS'arguments5'
p2356
I1
sS'origHeight'
p2357
I3
sS'Maloney'
p2358
I1
sS'splashNode'
p2359
I2
sS'function'
p2360
I25
sS'W75width75appletp63794'
p2361
I1
sS'clip'
p2362
I4
sS'ahoveropacity3filteralphaopacity33modalactionsbottom3pxmodalactions'
p2363
I1
sS'FfafontfamilyGeorgiaTimes'
p2364
I1
sS'h2hlviewer'
p2365
I1
sS'sourcemaxwidth540pxhlviewer'
p2366
I1
sS'W66width6666appletp63794'
p2367
I1
sS'Py0paddingbottom0appletp63794'
p2368
I1
sS'jslbprevopacity8background444colorfffwidth45pxheight45pxpadding0borderradius3pxhlviewer'
p2369
I1
sS'DconfigC'
p2370
I1
sS'Vatbverticalaligntextbottomappletp63794'
p2371
I1
sS'Flstartfloatleftdisplayinlineappletp63794'
p2372
I1
sS'storylinemainimg'
p2373
I1
sS'ViewerCloseBtnborderradius20pximportantfontsize17pximportantheight37pximportantmarginleft18pximportanttop87pximportantwidth37pximportantviewerright'
p2374
I1
sS'One'
p2375
I2
sS'border'
p2376
I1
sS'FPADLRECMASTTL1'
p2377
I1
sS'olineargradientleft'
p2378
I1
sS'0ff9b00'
p2379
I4
sS'Oil'
p2380
I1
sS'clearMeasures'
p2381
I1
sS'min'
p2382
I1
sS'able'
p2383
I1
sS'hangover'
p2384
I1
sS'posconfw'
p2385
I1
sS'posconfh'
p2386
I1
sS'B100bottom100appletp63794'
p2387
I1
sS'fadeIn'
p2388
I6
sS'Posapositionabsoluteappletp63794'
p2389
I1
sS'Science'
p2390
I1
sS'Pstart8paddingleft8pxappletp63794'
p2391
I1
sS'Cso1'
p2392
I1
sS'clash'
p2393
I1
sS'typepartnerattenusforeseetrigger'
p2394
I1
sS'maxURLLength'
p2395
I1
sS'Miw40minwidth40appletp63794'
p2396
I1
sS'expires'
p2397
I3
sS'ViewerCloseBtnbackgroundposition0'
p2398
I1
sS'margin0px'
p2399
I1
sS'Wpx26width26pxappletp63794'
p2400
I1
sS'pym'
p2401
I1
sS'Kanye'
p2402
I1
sS'device'
p2403
I3
sS'YMedia'
p2404
I4
sS'Bdrs100bordertopleftradius100pxbordertoprightradius100pxborderbottomleftradius100pxborderbottomrightradius100pxSlideshowLightbox'
p2405
I1
sS'Px16paddingright16pxpaddingleft16pxappletp63794'
p2406
I1
sS'Observer'
p2407
I1
sS'enthusiastic'
p2408
I1
sS'matchID'
p2409
I4
sS'High'
p2410
I4
sS'Donald'
p2411
I2
sS'ActionTooltip'
p2412
I11
sS'Bdtbordertopwidth1pxappletp63794'
p2413
I1
sS'Pb1paddingbottom1pxappletp63794'
p2414
I1
sS'Mitchell\xe2\x80\x99s'
p2415
I1
sS'scrap'
p2416
I1
sS'affair'
p2417
I1
sS'hoodies'
p2418
I1
sS'MathrounddatastartRender'
p2419
I1
sS'hnwebkithyphensnonemozhyphensnonemshyphensnonehyphensnoneappletp63794'
p2420
I1
sS'supported'
p2421
I1
sS'Py0paddingtop0appletp63794'
p2422
I1
sS'jslbprevfocusoutline0hlviewer'
p2423
I1
sS'vacancy'
p2424
I1
sS'Bgcpcbbackgroundclipcontentboxappletp63794'
p2425
I1
sS'Under'
p2426
I1
sS'jsstreamcontentlinkselected'
p2427
I1
sS'Pend20paddingright20pxappletp63794'
p2428
I1
sS'fear'
p2429
I1
sS'30px'
p2430
I1
sS'lhRecordxPLT'
p2431
I1
sS'resultps'
p2432
I1
sS'e5e5e5transitionopacity'
p2433
I1
sS'iframemodalembediframewidth100maxwidth640pxtransitionheight'
p2434
I1
sS'Wpx12width12pxappletp63794'
p2435
I1
sS'23xb0f'
p2436
I1
sS'lhRecordADENDFPAD'
p2437
I1
sS'Listdcliststyletypedecimalappletp63794'
p2438
I1
sS'Ttntexttransformnoneappletp63794'
p2439
I1
sS'windowIntlAvailableLangs'
p2440
I1
sS'beat'
p2441
I1
sS'jsstreamupsellcarousel'
p2442
I8
sS'fdburl'
p2443
I4
sS'ShareBtnhovertextdecorationnonehlviewer'
p2444
I1
sS'imgsrc'
p2445
I1
sS'timing'
p2446
I1
sS'90px'
p2447
I1
sS'trucks'
p2448
I1
sS'sasync'
p2449
I1
sS'documentgetElementsByTagNamehtml0classNamematchReaderclosed'
p2450
I1
sS'taxes'
p2451
I1
sS'default'
p2452
I1
sS'Overbudget'
p2453
I1
sS'jsstreamlikebuttonhStartaSignin'
p2454
I10
sS'Divorce'
p2455
I1
sS'bodyTag'
p2456
I4
sS'view'
p2457
I1
sS'quotfeeds'
p2458
I1
sS'posInfobookId'
p2459
I1
sS'Lh15lineheight15appletp63794'
p2460
I1
sS'distractingI'
p2461
I1
sS'C'
p2462
I2
sS'module'
p2463
I2
sS'Mb0appletp63794'
p2464
I1
sS'recently'
p2465
I2
sS'perfModalFetchEnd'
p2466
I1
sS'isPre'
p2467
I1
sS'Good'
p2468
I1
sS'Fzsfontsize13pxappletp63794'
p2469
I1
sS'appletp63794'
p2470
I3
sS'below'
p2471
I1
sS'YUIapplyConfiggroupsstencilcombinetruefiltermincomboSepcomboBasehttpssyimgcomzzcombobasehttpssyimgcomosmittdstencil310rootosmittdstencil310'
p2472
I1
sS'yvpcontentyvpdockedboxshadow0'
p2473
I1
sS'identification'
p2474
I1
sS'typefeaturecue'
p2475
I1
sS'endColorstrff9b00GradientType1'
p2476
I1
sS'crude'
p2477
I1
sS'End10right10appletp63794'
p2478
I1
sS'posItem'
p2479
I5
sS'olineargradienttop'
p2480
I2
sS'2px'
p2481
I4
sS'Wobnwordbreaknormalimportantappletp63794'
p2482
I1
sS'day'
p2483
I1
sS'key'
p2484
I1
sS'03s'
p2485
I4
sS'Ovhoverflowhiddenzoom1appletp63794'
p2486
I1
sS'yaftConfigpluginspush'
p2487
I2
sS'typemyymobile'
p2488
I1
sS'Mx2marginright2pxmarginleft2pxappletp63794'
p2489
I1
sS'Firefox'
p2490
I1
sS'lineargradient45deg'
p2491
I2
sS'borderbottomrightradius'
p2492
I2
sS'career'
p2493
I1
sS'YUIaddloadertdappletcanvassfunctionetYUIEnveversionmodulesYUIEnveversionmodulesemixYUIEnveversionmodulestdappletcanvassmainviewgrouptdappletcanvassrequiresafappletviewafeventaftransportafutilsafrapidstenciltooltiptdappletcanvasstemplatesstylestdappletcanvasspromoviewgrouptdappletcanvasstdappletcanvasstemplatesactivitiesgrouptdappletcanvassrequirestemplatebasedusttdappletcanvasstemplatesavatartdappletcanvasstemplatescommentsbodytdappletcanvasstemplatesactivitycommentsgrouptdappletcanvassrequirestemplatebasedusttdappletcanvasstemplatesavatartdappletcanvasstemplatescommentsbodytdappletcanvasstemplatesactivityrepliesgrouptdappletcanvassrequirestemplatebasedusttdappletcanvasstemplatesavatartdappletcanvasstemplatesrepliesbodytdappletcanvasstemplatesavatargrouptdappletcanvassrequirestemplatebasedusttdappletcanvasstemplatescommentsgrouptdappletcanvassrequirestemplatebasedusttdappletcanvasstemplatesavatartdappletcanvasstemplatescommentsbodytdappletcanvasstemplatescommentsbodygrouptdappletcanvassrequirestemplatebasedusttdappletcanvasstemplatescommentseditortoolsgrouptdappletcanvassrequirestemplatebasedusttdappletcanvasstemplatesformabusegrouptdappletcanvassrequirestemplatebasedusttdappletcanvasstemplatesformcanvassgrouptdappletcanvassrequirestemplatebasedusttdappletcanvasstemplatesformcommentgrouptdappletcanvassrequirestemplatebasedusttdappletcanvasstemplatesformdeletegrouptdappletcanvassrequirestemplatebasedusttdappletcanvasstemplatesformreplygrouptdappletcanvassrequirestemplatebasedusttdappletcanvasstemplatesfullscreengrouptdappletcanvassrequirestemplatebasedusttdappletcanvasstemplatesformreplytdappletcanvasstemplatesformabusetdappletcanvasstemplatesformdeletetdappletcanvasstemplatessharebtnstdappletcanvasstemplatesformcanvasstdappletcanvasstemplatesmaingrouptdappletcanvassrequirestemplatebasedusttdappletcanvasstemplatesformreplytdappletcanvasstemplatesformabusetdappletcanvasstemplatesformdeletetdappletcanvasstemplatesformcommenttdappletcanvasstemplatesmainactivitiesgrouptdappletcanvassrequirestemplatebasedusttdappletcanvasstemplatesactivitiestdappletcanvasstemplatespromonewsroomgrouptdappletcanvassrequirestemplatebasedusttdappletcanvasstemplatesrepliesgrouptdappletcanvassrequirestemplatebasedusttdappletcanvasstemplatesavatartdappletcanvasstemplatesrepliesbodytdappletcanvasstemplatesrepliesbodygrouptdappletcanvassrequirestemplatebasedusttdappletcanvasstemplatessharebtnsgrouptdappletcanvassrequirestemplatebasedusttdappletcanvasstemplatesstylesgrouptdappletcanvassrequirestemplatebasedustVERSIONrequiresloaderbase'
p2494
I1
sS'display'
p2495
I12
sS'assure'
p2496
I1
sS'jsthmslicondisplayinlineblockhlviewer'
p2497
I1
sS'webkitlineargradienttop'
p2498
I2
sS'tactical'
p2499
I1
sS'splashReplay'
p2500
I2
sS'backfillvideoadswidth300pxheight169pxhlviewer'
p2501
I1
sS'otherwise'
p2502
I1
sS'YMediaAfrapidtracker'
p2503
I6
sS'World'
p2504
I1
sS'Her'
p2505
I1
sS'posInfocreativeId'
p2506
I1
sS'Finally'
p2507
I1
sS'perfModalFetchStart'
p2508
I1
sS'Music'
p2509
I1
sS'Low'
p2510
I4
sS'lineheight'
p2511
I3
sS'StencilRoot'
p2512
I2
sS'windowperformanceclearMarks'
p2513
I2
sS'600'
p2514
I2
sS'Get'
p2515
I1
sS'My18margintop18pxmarginbottom18pxappletp63794'
p2516
I1
sS'Yahoo'
p2517
I8
sS'Mend8marginright8pxappletp63794'
p2518
I1
sS'Start75left75appletp63794'
p2519
I1
sS'posItemmetaysize'
p2520
I4
sS'adLTpushDARLARSTART'
p2521
I1
sS'colorstop65ff353c'
p2522
I1
sS'My2margintop2pxmarginbottom2pxappletp63794'
p2523
I1
sS'Py8paddingtop8pxpaddingbottom8pxappletp63794'
p2524
I1
sS'lhRecordPLTCACHEDREQs'
p2525
I1
sS'jsstreamcommentsbuttonhover'
p2526
I2
sS'Curmcursormoveappletp63794'
p2527
I1
sS'h4fontsize15pxfontsize15remHlViewer'
p2528
I1
sS'Dibdisplayinlineblockdisplayinlinezoom1appletp63794'
p2529
I1
sS'Curwcursorwaitappletp63794'
p2530
I1
sS'valuations'
p2531
I1
sS'h1fontsize18pxfontsize18remHlViewer'
p2532
I1
sS'typeappscontainersmartphone'
p2533
I1
sS'protect'
p2534
I1
sS'c8c8c8paddingbottom50pxhlviewer'
p2535
I1
sS'darlaPositionPerfbookId'
p2536
I1
sS'Pend10paddingright10pxappletp63794'
p2537
I1
sS'color020e65'
p2538
I1
sS'Posfpositionfixedappletp63794'
p2539
I1
sS'posItemhasErr'
p2540
I2
sS'mastAdCollapsed'
p2541
I1
sS'c1'
p2542
I1
sS'Navigation'
p2543
I1
sS'locales'
p2544
I4
sS'Dtbcdisplaytablecellappletp63794'
p2545
I1
sS'ConBeforePosMsg'
p2546
I1
sS'nnlibmetrogmyyappdeclarations006js'
p2547
I1
sS'serveTime1'
p2548
I1
sS'arrawhlviewer'
p2549
I1
sS'windowadRenderComplete'
p2550
I2
sS'Tickets'
p2551
I1
sS'curAdparentElementclassName'
p2552
I5
sS'marginbottom5px'
p2553
I1
sS'15smstransitionheight'
p2554
I1
sS'jsslideritemfirstpaddingtop0bordertopnonehlviewer'
p2555
I1
sS'keyframes'
p2556
I3
sS'Mendneg14marginright14pxappletp63794'
p2557
I1
sS'helped'
p2558
I1
sS'Strike'
p2559
I1
sS'Imageimg2onloadcheckImagesimg2onerrorfunctionerror2truecheckImagesimg2srcpxreplace2replacerandombeforeCheckcallback250'
p2560
I1
sS'videoInit'
p2561
I5
sS'bucks'
p2562
I1
sS'You'
p2563
I1
sS'Bdrsborderradius3pxappletp63794'
p2564
I1
sS'Mtneg16margintop16pxappletp63794'
p2565
I1
sS'windowremoveEventListenerload'
p2566
I3
sS'borderradius'
p2567
I1
sS'Pt14paddingtop14pxappletp63794'
p2568
I1
sS'P20padding20pxappletp63794'
p2569
I1
sS'i0startTime'
p2570
I3
sS'party'
p2571
I1
sS'nnlibmetrognuxnux0044js'
p2572
I1
sS'Mt30margintop30pxappletp63794'
p2573
I1
sS'datavisuallyComplete'
p2574
I1
sS'streamshareopen'
p2575
I1
sS'windowIntlAvailableLangswindowYUIconfiglang'
p2576
I1
sS'logic'
p2577
I1
sS'coaches'
p2578
I1
sS'rgba000085'
p2579
I2
sS'YMediaAfEvent'
p2580
I1
sS'nodeeventiojsonparsejsonstringify'
p2581
I1
sS'center'
p2582
I1
sS'YBUCKET201'
p2583
I1
sS'Fantasy'
p2584
I2
sS'B25bottom25appletp63794'
p2585
I1
sS'2pxpadding0'
p2586
I1
sS'deadly'
p2587
I1
sS'My4margintop4pxmarginbottom4pxappletp63794'
p2588
I1
sS'441px'
p2589
I1
sS'e8e8e8hlviewer'
p2590
I1
sS'Bdtrrsbordertoprightradius3pxappletp63794'
p2591
I1
sS'Trigger'
p2592
I1
sS'ConFinishRequest'
p2593
I1
sS'Mendneg8marginright8pxappletp63794'
p2594
I1
sS'darlaFetchPerfname'
p2595
I1
sS'perfMarkMODALOPEN'
p2596
I1
sS'console'
p2597
I1
sS'bodyTagclassNamereplacemastAdCollapsed'
p2598
I1
sS'Friday'
p2599
I1
sS'uaffatomic'
p2600
I1
sS'nnlibmetrogmyyafappletcontentview003js'
p2601
I1
sS'combine'
p2602
I2
sS'adc'
p2603
I4
sS'5'
p2604
I2
sS'unprecedented'
p2605
I1
sS'W0width0appletp63794'
p2606
I1
sS'css3'
p2607
I1
sS'Mom39s'
p2608
I1
sS'Unfortunately'
p2609
I1
sS'government'
p2610
I1
sS'functionactioneventname'
p2611
I2
sS'Bgcpbbbackgroundclipborderboxappletp63794'
p2612
I1
sS'Bdstartborderleftwidth1pxappletp63794'
p2613
I1
sS'Mah0maxheight0appletp63794'
p2614
I1
sS'windowperformancemarkdarlaJsLoaded'
p2615
I1
sS'windowAfconfigspaceid'
p2616
I1
sS'windowYAFT'
p2617
I2
sS'Ovstwebkitoverflowscrollingtouchappletp63794'
p2618
I1
sS'nnlibmetrogmyyspacebarscroll001js'
p2619
I1
sS'Maw40maxwidth40appletp63794'
p2620
I1
sS'pageEndHTML'
p2621
I1
sS'windowperformancegetEntriesByName'
p2622
I4
sS'Start50'
p2623
I10
sS'Mstart6marginleft6pxappletp63794'
p2624
I1
sS'Warning'
p2625
I1
sS'Mstartneg1marginleft1pxappletp63794'
p2626
I1
sS'yui3aclistitem'
p2627
I2
sS'230px'
p2628
I1
sS'Op50opacity5filteralphaopacity50appletp63794'
p2629
I1
sS'page'
p2630
I1
sS'rgba000065'
p2631
I2
sS'amendment'
p2632
I3
sS'Mt8margintop8pxappletp63794'
p2633
I1
sS'Mend0appletp63794'
p2634
I1
sS'nnlibmetrogsdaubasda002js'
p2635
I1
sS'windowrtAdStart'
p2636
I1
sS'Vhvisibilityhiddenappletp63794'
p2637
I1
sS'megamodaltrue'
p2638
I1
sS'Cheonan'
p2639
I1
sS'Wowbwwordwrapbreakwordappletp63794'
p2640
I1
sS'gclientWidth'
p2641
I1
sS'188fff'
p2642
I4
sS'Fsnfontstylenormalappletp63794'
p2643
I1
sS'overlay'
p2644
I2
sS'attributionfontsize12pxhlviewer'
p2645
I1
sS'typerapidworker12'
p2646
I1
sS'tooltip'
p2647
I1
sS'typerapidworker11'
p2648
I1
sS'lbmetatxtcontainershortdisplaynoneSlideshowLightbox'
p2649
I1
sS'windowrtAdDone'
p2650
I1
sS'earrings'
p2651
I1
sS'jsslideritemsinglerightrail'
p2652
I1
sS'Listlrliststyletypelowerromanappletp63794'
p2653
I1
sS'winWidth'
p2654
I2
sS'schedule'
p2655
I1
sS'nnlibmetrogrecoreco0010js'
p2656
I1
sS'modulesExclude'
p2657
I1
sS'Mila'
p2658
I1
sS'buttonwidth32pxheight100backgroundcolor0179fffontsize16pxfontweight700colorfffborderradius0'
p2659
I1
sS'host'
p2660
I1
sS'adsponsoredcolor959595fontsize11pxmarginright0paddingright0hlviewer'
p2661
I1
sS'enus'
p2662
I4
sS'Clendclearrightappletp63794'
p2663
I1
sS'lbmetacontentdisplaynoneSlideshowLightbox'
p2664
I1
sS'nnlibmetrogmyyabu0016js'
p2665
I1
sS'windowperfMark'
p2666
I1
sS'Coupon'
p2667
I1
sS'documentgetElementByIdsplashConfclean'
p2668
I1
sS'contentmodalpaddingtop0hlviewer'
p2669
I1
sS'jsthmsliconcolorffffontsize25pxtop12pxdisplaynonehlviewer'
p2670
I1
sS'getting'
p2671
I2
sS'Mbneg1marginbottom1pxappletp63794'
p2672
I1
sS'M18margin18pxappletp63794'
p2673
I1
sS'lhRecordSCRW'
p2674
I1
sS'curAdclassNamereplacehladLREC'
p2675
I1
sS'US'
p2676
I2
sS'190px'
p2677
I1
sS'UK'
p2678
I1
sS'i1E3callbackchecksRemain0detectedelse'
p2679
I1
sS'comprtypedeflatetrackedmodsspaceid2023538075clicktimeout300trackrightclicktrueapvtrueapvtime0asyncallclicksfalsecomprontrueyqlhostyqlpathtestid201clientonly0pageviewoninittrueperfnavigationtime2addmodulestimeout500extendbcookiefalsekeysriddejvnetc399gmmrktuspt1vermegastrmuhvw0coloslw58fpgq1yahoocomnavtypeservernob1abkviewabilitytrue'
p2680
I1
sS'Sat'
p2681
I1
sS'jsstreamdrawer'
p2682
I2
sS'Bdstart0borderleft0appletp63794'
p2683
I1
sS'Mstart20marginleft20pxappletp63794'
p2684
I1
sS'own'
p2685
I2
sS'yvpcontentyvpdockedshowmetayvpdockedboxshadow0'
p2686
I1
sS'rgba0005hlviewer'
p2687
I1
sS'Mbneg8marginbottom8pxappletp63794'
p2688
I1
sS'darlaFetchPerfrid'
p2689
I1
sS'Lh18lineheight18appletp63794'
p2690
I1
sS'domain'
p2691
I1
sS'Pt16paddingtop16pxappletp63794'
p2692
I1
sS'documentgetElementByIdmyadsUBALREC2fallback'
p2693
I1
sS'prefetched'
p2694
I1
sS'Ditbdisplayinlinetableappletp63794'
p2695
I1
sS'boost'
p2696
I1
sS'Finance'
p2697
I3
sS'val'
p2698
I1
sS'ShareBtnhoveropacity1filteralphaopacity100ShareBtns'
p2699
I1
sS'ShareBtnborderradius50pxwidth17pxheight17pxlineheight13hlviewer'
p2700
I1
sS'Dbdisplayblockappletp63794'
p2701
I1
sS'dejvnetc399gm'
p2702
I1
sS'var'
p2703
I73
sS'uhsearch'
p2704
I8
sS'Bdbrrsborderbottomrightradius3pxappletp63794'
p2705
I1
sS'YMediaMy'
p2706
I1
sS'Fwbfontweight700webkitfontsmoothingantialiasedmozosxfontsmoothinggrayscaleappletp63794'
p2707
I1
sS'bus'
p2708
I1
sS'Wpx30width30pxappletp63794'
p2709
I1
sS'pe'
p2710
I1
sS'pureclientdarla'
p2711
I1
sS'Bdbrrs100borderbottomrightradius100pxappletp63794'
p2712
I1
sS'ContentBodypaddingbottom50pxborderbottom1px'
p2713
I1
sS'15sjsheadersearchboxdisplaynonepositionabsoluteheight30pxleft730pxtop9pxborderradius2pxjsheadersearchbox'
p2714
I1
sS'85rgba255255255099'
p2715
I8
sS'Mb6marginbottom6pxappletp63794'
p2716
I1
sS'cmsg'
p2717
I1
sS'viewerwrappermegamodalminheight750pxhlviewer'
p2718
I1
sS'Pend4paddingright4pxappletp63794'
p2719
I1
sS'afappletcontentviewafutilsapeapplettemplatessettingswrap'
p2720
I1
sS'signed'
p2721
I1
sS'45yearold'
p2722
I1
sS'blockquotepadding5px'
p2723
I1
sS'Britain'
p2724
I1
sS'meta'
p2725
I5
sS'jsstreamupsellleft'
p2726
I2
sS'pemptydisplaynonehlviewer'
p2727
I1
sS'Mx12marginright12pxmarginleft12pxappletp63794'
p2728
I1
sS'\xc2\xbb'
p2729
I1
sS'Mt6margintop6pxappletp63794'
p2730
I1
sS'136px'
p2731
I1
sS'Mah60maxheight60appletp63794'
p2732
I1
sS'functionY'
p2733
I1
sS'marginbottom'
p2734
I1
sS'ahoveropacity1filteralphaopacity100hlviewerfocusoutline0hlviewer'
p2735
I1
sS'T50top50appletp63794'
p2736
I1
sS'perfcommontime'
p2737
I1
sS'YMediaGlobalfirestreamsplashclose'
p2738
I2
sS'nnlibmetrogmyymailmyymailmainview0023js'
p2739
I1
sS'prefetchedindexOfTL1'
p2740
I1
sS'Mb14marginbottom14pxappletp63794'
p2741
I1
sS'percent'
p2742
I1
sS'functione'
p2743
I3
sS'typeeventsjs'
p2744
I1
sS'nnlibmetrogmyyrapidworker12003js'
p2745
I1
sS'modalvideoplaybackinfo'
p2746
I1
sS'rapidInstancebeaconPerformanceDatarapidPerfData'
p2747
I3
sS'Timestampcolorabaeb7hlviewer'
p2748
I1
sS'Wpx6width6pxappletp63794'
p2749
I1
sS'Op100opacity1filteralphaopacity100appletp63794'
p2750
I1
sS'MathroundmodalFetchStart0startTime'
p2751
I1
sS'jsrelatedvideocontainersinglerightrail'
p2752
I1
sS'experienceIts'
p2753
I1
sS'FfefontfamilyMonacoCourier'
p2754
I1
sS'jsviewerviewarticle'
p2755
I1
sS'Act'
p2756
I1
sS'randomMathrandom11var'
p2757
I1
sS'friends'
p2758
I1
sS'Listurliststyletypeupperromanappletp63794'
p2759
I1
sS'ActionComments'
p2760
I3
sS'slv2carouselpaddingbottom78hlviewer'
p2761
I1
sS'maxHeight'
p2762
I2
sS'Demi'
p2763
I2
sS'M16margin16pxappletp63794'
p2764
I1
sS'animationduration'
p2765
I1
sS'MathroundrtAdStart'
p2766
I1
sS'documentgetElementsByTagNamebody0'
p2767
I4
s.