(dp0
S'todays'
p1
I1
sS'impersonationlayouturi20161122footballbrucearenausmntheadcoachjurgenklinsmannindexhtmlheadlineUS'
p2
I1
sS'controversial'
p3
I2
sS'railing'
p4
I1
sS'Foundation'
p5
I1
sS'trueinfo'
p6
I1
sS'wizardry'
p7
I1
sS'bike'
p8
I1
sS'voted'
p9
I1
sS'tagNamereturn'
p10
I1
sS'sorry'
p11
I1
sS'worth'
p12
I1
sS'CNNcontentModelanalyticscaptopicssplitsCNNgetCapTopics'
p13
I1
sS'League'
p14
I1
sS'NationVital'
p15
I2
sS'rise'
p16
I1
sS'trueenableAmazonVideoAds'
p17
I1
sS'slotCounttryCountsetAdSlotsif'
p18
I1
sS'expirederrorSlatedefaultTextAn'
p19
I2
sS'NowdescriptionYou'
p20
I1
sS'Dont'
p21
I1
sS'school'
p22
I1
sS'wooden'
p23
I1
sS'dsVal'
p24
I1
sS'fastdomfunction'
p25
I1
sS'namelocatorbe47ea9695b453467348bundlejssize2127chunks10chunkNameslocatoremittedtruenameanimations8570286abaac7b359730bundlejssize8077chunks0chunkNamesanimationsemittedtruenamebreakoutmedia55acded57d333ec6d577bundlejssize1271chunks2chunkNamesbreakoutmediaemittedtruenamebyline5feb0fef867a74c9c4bebundlejssize1375chunks3chunkNamesbylineemittedtruenamecvploadera4680e5a22612322eb8cbundlejssize297913chunks4chunkNamescvploaderemittedtruenamefacebookf2f784f4ab0baa9ccf37bundlejssize1012chunks5chunkNamesfacebookemittedtruenamefinanciallibs6a53b5ac079a456e496dbundlejssize5631chunks6chunkNamesfinanciallibsemittedtruenamegridresize248a1464eb4dbcec8fcebundlejssize1460chunks7chunkNamesgridresizeemittedtruenamelistexpandable9e12463ab9150a2cc679bundlejssize741chunks8chunkNameslistexpandableemittedtruenameloadedb0e1182fc04114795c40bundlejssize218chunks9chunkNamesloadedemittedtruenamebootstrapperdfe754e722668df2e35ebundlejssize1893chunks1chunkNamesbootstrapperemittedtruenamemailchimp43bccb5ad56fc8134accbundlejssize5211chunks11chunkNamesmailchimpemittedtruenamemetadata044ab742596fd05a5c20bundlejssize663chunks12chunkNamesmetadataemittedtruenamemobileonetapb699506eb628037c6044bundlejssize7822chunks13chunkNamesmobileonetapemittedtruenamesubhub4c9af6e7594257c03f10bundlejssize5821chunks14chunkNamessubhubemittedtruenametvschedule386c14852082b4898e39bundlejssize2549chunks15chunkNamestvscheduleemittedtruenameusabillaafa4ae6c29a84d0a7353bundlejssize2283chunks16chunkNamesusabillaemittedtruenamevideo736429bb5b39dd14846dbundlejssize326423chunks17chunkNamesvideoemittedtruenamevideobootstrapper6d5f4eb37bc0f39699b2bundlejssize191676chunks18chunkNamesvideobootstrapperemittedtruenamevidex38b578a6a4a9ef111007bundlejssize4429chunks19chunkNamesvidexemittedtruenameweather686ff98ea499193ccec8bundlejssize18488chunks20chunkNamesweatheremittedtrue'
p26
I1
sS'reshuffling'
p27
I1
sS'undercover'
p28
I1
sS'saylayouturi20161121entertainmentkanyewesthospitalizedindexhtmlheadlineKanye'
p29
I1
sS'leaders'
p30
I1
sS'chef'
p31
I1
sS'tether'
p32
I1
sS'estimated'
p33
I1
sS'thumbnailhttpi2cdncnncomcnnnextdamassets161103083125expmarcforgionecheftotalcoverageorig00003214small11jpgduration0207descriptionRestaurateur'
p34
I1
sS'excised'
p35
I1
sS'cooking'
p36
I1
sS'regiontitleTextVideo'
p37
I1
sS'Hamilton'
p38
I1
sS'CNNcom'
p39
I1
sS'full16x91101large781medium461mini0small308xsmall221CNNJumbotronConfig'
p40
I1
sS'trueenableVideoPinning'
p41
I1
sS'c1351000'
p42
I1
sS'cult'
p43
I1
sS'converterServicecommonmodulesiframecurrencyConverterasplookupServiceservicescnndotcomlookupaspserviceHosthttpmarketsmoneycnncomCNNMetaRefreshRate'
p44
I1
sS'15000boomrready'
p45
I1
sS'NewslettersdescriptionCNN'
p46
I1
sS'Tuesday'
p47
I3
sS'changed'
p48
I1
sS'Mohd'
p49
I1
sS'beaconTimeoutif'
p50
I1
sS'cancellation'
p51
I1
sS'Orleans'
p52
I1
sS'campaign'
p53
I3
sS'Privacy'
p54
I1
sS'ProfilesLeadershipPressroomPartner'
p55
I2
sS'Mirabaud'
p56
I1
sS'falseslots'
p57
I1
sS'sandwich\xe2\x80\x94as'
p58
I1
sS'unit'
p59
I1
sS'plot'
p60
I2
sS'browse'
p61
I1
sS'hospital'
p62
I1
sS'call'
p63
I2
sS'preview'
p64
I3
sS'type'
p65
I2
sS'tell'
p66
I1
sS'enableForCarouselstrueenableForImagestrueloadTimeOut5000threshold300CNNFeatures'
p67
I1
sS'brings'
p68
I1
sS'windowconsole'
p69
I2
sS'award'
p70
I1
sS'casualties'
p71
I1
sS'Signing'
p72
I1
sS'1997'
p73
I1
sS'pursue'
p74
I1
sS'SignsSportFootballGolfTennisMotorsportHorseracingEquestrianSailingSkiingTravelAviationBusiness'
p75
I2
sS'videographers'
p76
I1
sS'intlhomepage'
p77
I1
sS'httpeditioncnncomsubstr7windowsfasyncconfigflickerControl'
p78
I1
sS'hreftermsTerms'
p79
I1
sS'doughlayouturi20161114healthdepressionteengirlsindexhtmlheadlineWhy'
p80
I1
sS'surfacelayouticonTypegalleryuri20161115luxurypatekphilippe1518wristwatchindexhtmlheadlineRare'
p81
I1
sS'Lt'
p82
I1
sS'caution'
p83
I1
sS'Digital'
p84
I1
sS'validated'
p85
I1
sS'windowperformancemarkoptimizelyEnd'
p86
I1
sS'nameReliableSourcessubTitleEssential'
p87
I1
sS'travel'
p88
I1
sS'damage'
p89
I2
sS'Muslims'
p90
I1
sS'Jack'
p91
I1
sS'env'
p92
I1
sS'disappoint'
p93
I1
sS'A'
p94
I2
sS'oceans'
p95
I1
sS'boyslayouturi20161114golfgolfindiaaditiashokindexhtmlheadlineTeen'
p96
I1
sS'vicious'
p97
I1
sS'superyacht'
p98
I1
sS'wrong'
p99
I1
sS'trueenableJumbotronAutoScroll'
p100
I1
sS'president'
p101
I2
sS'ThingssubTitleUp'
p102
I1
sS'winBOOMR'
p103
I1
sS'docgetElementsByTagNamescript0fdmutatefunction'
p104
I1
sS'sectionName'
p105
I1
sS'Hadid'
p106
I1
sS'enter'
p107
I1
sS'enableAdLock'
p108
I1
sS'storyCNNTripAdvisor'
p109
I1
sS'feedback'
p110
I1
sS'WorldInside'
p111
I2
sS'personal'
p112
I1
sS'adobeEnvironmentprodadobeSwfPathelementappscvp30swfAccessEnablerLoaderswfaspenContextprev10endSlatectaTextSign'
p113
I1
sS'recreational'
p114
I1
sS'Here'
p115
I3
sS'crew'
p116
I1
sS'jQueryfnonZoneRendered'
p117
I1
sS'preferenceUSInternationalConfirmUSInternationalArabicEspa\xc3\xb1olcopynbsp2016nbspCablenbspNewsnbspNetwork'
p118
I1
sS'weeks'
p119
I2
sS'There'
p120
I2
sS'safe'
p121
I1
sS'break'
p122
I1
sS'effects'
p123
I1
sS'India'
p124
I1
sS'fitness'
p125
I1
sS'debug'
p126
I1
sS'togetherthumbnailhttpi2cdncnncomcnnnextdamassets161118161858sepo1small11jpgduration0241descriptionFor'
p127
I1
sS'bone'
p128
I1
sS'mean'
p129
I1
sS'hosted'
p130
I1
sS'AllnbspRightsnbspReservedCNNnbspSansnbsptradenbspampnbspcopynbsp2016nbspCablenbspNewsnbspNetworkTerms'
p131
I1
sS'driving'
p132
I1
sS'c115840'
p133
I1
sS'GCC'
p134
I1
sS'NowdescriptionThe'
p135
I1
sS'silent'
p136
I1
sS'documentgetElementByIdtrySlotsi'
p137
I1
sS'trueenableAspenForTOS'
p138
I1
sS'Clinton'
p139
I2
sS'equine'
p140
I1
sS'BellsubTitleKey'
p141
I1
sS'days'
p142
I1
sS'priorities'
p143
I1
sS'detailstypefor'
p144
I1
sS'corrections'
p145
I1
sS'onto'
p146
I1
sS'Serbs'
p147
I1
sS'falselog'
p148
I1
sS'Please'
p149
I3
sS'primary'
p150
I1
sS'Waite'
p151
I1
sS'service'
p152
I3
sS'rejects'
p153
I1
sS'top'
p154
I1
sS'girls'
p155
I3
sS'sexthumbnailhttpi2cdncnncomcnnnextdamassets160816141111lauren8copysmall11jpgdurationdescriptionAs'
p156
I1
sS'DatenowthisbodyappendChildjsdocwritedocclosewindow'
p157
I1
sS'Search'
p158
I1
sS'zoneIds'
p159
I1
sS'white'
p160
I1
sS'begins'
p161
I1
sS'distance'
p162
I1
sS'Sep'
p163
I1
sS'legalize'
p164
I1
sS'tree'
p165
I1
sS'nations'
p166
I1
sS'trueenableAspenForCVP'
p167
I1
sS'fashion'
p168
I1
sS'windowsfasyncconfiguid'
p169
I1
sS'modern'
p170
I1
sS'elem'
p171
I1
sS'talking'
p172
I2
sS'upthumbnailhttpi2cdncnncomcnnnextdamassets161027094247newhillaryclintondonaldtrumpcomposite2small11jpgdurationdescriptionPresidentelect'
p173
I1
sS'scriptdatasetdsVal'
p174
I1
sS'seen'
p175
I3
sS'tells'
p176
I1
sS'dozen'
p177
I1
sS'Then'
p178
I1
sS'jQueryparseHTMLdata'
p179
I1
sS'latter'
p180
I1
sS'snow'
p181
I1
sS'luxury'
p182
I1
sS'forces'
p183
I1
sS'wineditionadTargetscapTopics'
p184
I1
sS'NewslettersselectedButtonTextAddedsubmitButtonTextSubscribesubmittedButtonTextSubmittedmailchimpUrlhttpsbulletincnncomapiv1subscribeconfirmationtitleThanks'
p185
I1
sS'UTCexpirationPeriod2592000000nameNotifiedIEUnSupportvaluetrueheaderTextYour'
p186
I1
sS'plenty'
p187
I1
sS'thrillseekers'
p188
I1
sS'drought'
p189
I1
sS'goal\xe2\x80\x94eradication'
p190
I1
sS'observation'
p191
I1
sS'Lewis'
p192
I1
sS'devastating'
p193
I1
sS'swerved'
p194
I1
sS'seasonthumbnailhttpi2cdncnncomcnnnextdamassets161010162822mercedeshamiltonrosbergaustraliasmall11jpgdurationdescriptionCNN'
p195
I1
sS'Election'
p196
I1
sS'Its'
p197
I1
sS'falseenableWeather'
p198
I1
sS'pardoned'
p199
I1
sS'orchestra'
p200
I2
sS'windoweditionadTargets'
p201
I1
sS'attempts'
p202
I1
sS'trueenableGalleryAds'
p203
I1
sS'European'
p204
I1
sS'classtroubleshootinglink'
p205
I2
sS'layout'
p206
I1
sS'painfully'
p207
I1
sS'Big'
p208
I1
sS'mens'
p209
I1
sS'blighted'
p210
I1
sS'Biz'
p211
I1
sS'lowsthumbnailhttpi2cdncnncomcnnnextdamassets160405104735tigerwoodsteasesmall11jpgdurationdescriptionTiger'
p212
I1
sS'interval20isVisibletruepageTypesectionresetDelay3resetThreshold17sectionNameintlhomepageCNN'
p213
I1
sS'photograph'
p214
I1
sS'falseenableEpicAds'
p215
I1
sS'amazon'
p216
I1
sS'sailing'
p217
I1
sS'countries'
p218
I1
sS'titlethumbnailhttpi2cdncnncomcnnnextdamassets161122145728hamiltonrosbergtease2small11jpgdurationdescriptionTwo'
p219
I1
sS'sitesiReportUSInternationalEspantildeolArabicSet'
p220
I1
sS'Caribbean'
p221
I1
sS'Heres'
p222
I1
sS'AvailableimageUrlhttpi2cdncnncomcnn2016images1104electiondaygeojpggeoCheckEnabledtruegeoCheckTargetsAFJPMYSHTHYTpageRefreshTime360mutedPlayerstartTime0stopInterval30stopTime0timeZoneGMTembedLinksclipboardOperationsSWFhttpicdncnncomcnnvideoassetsCNNVideoClipboardCopyswfbuttonImagecdnassetpathbuildassetsembedvideobuttonpngimageButtonXOffset0imageButtonYOffset3embedLinkPatternu003ciframe'
p223
I1
sS'analytics'
p224
I1
sS'result'
p225
I1
sS'Formula'
p226
I2
sS'01'
p227
I3
sS'trueBOOMRsendBeaconbindthis'
p228
I1
sS'titlelayouticonTypegalleryuri20161117sportgallerymirabaudyachtracingbestphotosindexhtmlheadlineWorlds'
p229
I1
sS'empower'
p230
I1
sS'thisthumbnailhttpi2cdncnncomcnnnextdamassets161013160748dinosaurssmall11jpegdurationdescriptionlayout'
p231
I1
sS'Forgione'
p232
I1
sS'BOOMR'
p233
I2
sS'layouturi20160421usprojectvicchildabuseindexhtmlheadlineChild'
p234
I1
sS'nullfunction'
p235
I1
sS'news'
p236
I4
sS'kitchen'
p237
I1
sS'height234'
p238
I1
sS'triggers'
p239
I2
sS'country'
p240
I2
sS'Datenowfdmutatefunction'
p241
I1
sS'NowdescriptionBefore'
p242
I1
sS'Syrian'
p243
I1
sS'srchttphostvideoapiembedhtmlvideovideoId'
p244
I1
sS'fidgetslayouturi20160823worldcanadaindigenoussextraffickingindexhtmlheadlineCanadian'
p245
I1
sS'Speeding'
p246
I1
sS'trust'
p247
I2
sS'targetblankeven'
p248
I1
sS'100'
p249
I2
sS'conference'
p250
I1
sS'ClaytonleMoors'
p251
I1
sS'observing'
p252
I1
sS'editioncnncommobilemobilewebhomepage'
p253
I1
sS'detailsdatasetdsValdocbodyappendChildscript'
p254
I1
sS'timethumbnailhttpi2cdncnncomcnnnextdamassets161024175025guccitennisshoesmall11jpgdurationdescriptionOnce'
p255
I1
sS'life'
p256
I3
sS'enableAmazonDisplayAds'
p257
I1
sS'eastern'
p258
I1
sS'hospitalized'
p259
I1
sS'dsValdetails'
p260
I1
sS'devicedismissCookieexpirationTue'
p261
I1
sS'lice'
p262
I1
sS'girlsthumbnailhttpi2cdncnncomcnnnextdamassets121011141623teenssadsmall11jpgdurationdescriptionDepression'
p263
I1
sS'child'
p264
I3
sS'catch'
p265
I9
sS'trueenableUserMessage'
p266
I1
sS'presidency'
p267
I1
sS'Conway'
p268
I1
sS'air'
p269
I1
sS'trueCNNChartbeat'
p270
I1
sS'Persian'
p271
I1
sS'abrupt'
p272
I1
sS'typeof'
p273
I7
sS'thisdomain'
p274
I1
sS'anchor'
p275
I1
sS'goallayouturi20161122middleeastisissecretprisoninterviewindexhtmlheadlineFacetoface'
p276
I1
sS'player'
p277
I1
sS'confirmed'
p278
I1
sS'amount'
p279
I1
sS'split'
p280
I1
sS'getCapTopics'
p281
I1
sS'Chinese'
p282
I1
sS'satellite'
p283
I1
sS'trueenableLiveFyre'
p284
I1
sS'mobileSSID'
p285
I1
sS'hand'
p286
I1
sS'Angeles'
p287
I1
sS'programs'
p288
I1
sS'prioritize'
p289
I1
sS'youre'
p290
I1
sS'contact'
p291
I2
sS'leagues'
p292
I1
sS'53M'
p293
I1
sS'enableIntelligentLoadfalseenablePictureFillfalselazyLoadtrueloadAllZonesLazytruezonesminWidth0indexhtmlintlhomepage1zone1intlindex3htmlintlhomepagemagellanzone1intlindex3htmlintlhomepagemagellanzone2intlindex3htmlintlhomepagemagellanzone3intlindex3htmlintlhomepagemagellanzone4indexhtmlintlhomepage3zone4640homepagezoneinjectionindexhtmlhomepageinjectionzone3indexhtmlintlhomepage1zone1homepagezoneinjectionindexhtmlhomepageinjectionzone4indexhtmlintlhomepage1zone2indexhtmlintlhomepage1zone3indexhtmlintlhomepage1zone4indexhtmlintlhomepage2zone1indexhtmlintlhomepage3zone1indexhtmlintlhomepage3zone2indexhtmlintlhomepage3zone3indexhtmlintlhomepage3zone4800homepagezoneinjectionindexhtmlhomepageinjectionzone3indexhtmlintlhomepage1zone1homepagezoneinjectionindexhtmlhomepageinjectionzone4indexhtmlintlhomepage1zone2indexhtmlintlhomepage1zone3indexhtmlintlhomepage1zone4indexhtmlintlhomepage2zone1indexhtmlintlhomepage3zone1indexhtmlintlhomepage3zone2indexhtmlintlhomepage3zone3indexhtmlintlhomepage3zone4CNNSiblingNavigation'
p294
I1
sS'human'
p295
I4
sS'previous'
p296
I1
sS'labelsmallminWidth0labellargeminWidth768'
p297
I1
sS'Slovenia'
p298
I1
sS'News'
p299
I6
sS'domjsid'
p300
I1
sS'httptrafficoutbraincomnetworktrackpxladvid814actionviewCNNToggleOutbrain'
p301
I1
sS'doccreateElementscriptelemsrc'
p302
I1
sS'dreams'
p303
I1
sS'Heart'
p304
I1
sS'Trump'
p305
I10
sS'MABsrcstaticchartbeatcomjschartbeatmabjssrcstaticchartbeatcomjschartbeatjsuid37612CNNFeeds'
p306
I1
sS'53'
p307
I1
sS'homelandthumbnailhttpi2cdncnncomcnnnextdamassets161108131821slovenialakebled3small11jpgdurationdescriptionEven'
p308
I1
sS'exploitationlayouturivideosworld20161122terrywaitehostagenegotiatororigcnnheadlineA'
p309
I1
sS'security'
p310
I2
sS'Prince'
p311
I1
sS'people'
p312
I3
sS'somehow'
p313
I1
sS'dead'
p314
I1
sS'scrSrcdocbodyappendChildscriptElementjQuerywindowloadfunction'
p315
I1
sS'readmitted'
p316
I1
sS'bore'
p317
I1
sS'counts'
p318
I1
sS'thumbnaildurationdescriptionDonald'
p319
I1
sS'offcourse'
p320
I1
sS'Facebook'
p321
I2
sS'www04ptc0f3955ae0ca2486489b56913cbbb8985jsscriptElementsrc'
p322
I1
sS'denied'
p323
I1
sS'cnn'
p324
I1
sS'UTColdCookieNametosAgreedvaluetrueheaderTextheightsmall120medium90large90idtosmessageTextBy'
p325
I1
sS'trueelemtype'
p326
I1
sS'Yacht'
p327
I2
sS'Daily'
p328
I1
sS'0trySlots'
p329
I1
sS'post'
p330
I1
sS'Explorer'
p331
I1
sS'Image'
p332
I1
sS'urlcdnoptimizelycomjs128727546jsCNNOutbrainVideoKPISrc'
p333
I1
sS'Faiz'
p334
I1
sS'rantthumbnaildurationdescriptionKanye'
p335
I1
sS'whats'
p336
I1
sS'Cup'
p337
I1
sS'pays'
p338
I1
sS'Afrobeat'
p339
I1
sS'Few'
p340
I1
sS'trueenableRefreshTimers'
p341
I1
sS'ISIS'
p342
I1
sS'httpscdnsslclicktalenet'
p343
I1
sS'support'
p344
I1
sS'transform'
p345
I1
sS'fight'
p346
I1
sS'music'
p347
I1
sS'Djokovic'
p348
I1
sS'head'
p349
I6
sS'adSlotTimeout'
p350
I1
sS'differences'
p351
I1
sS'failure'
p352
I1
sS'true'
p353
I5
sS'inside'
p354
I3
sS'juvenile'
p355
I1
sS'100km'
p356
I1
sS'request'
p357
I1
sS'tournament'
p358
I1
sS'CNNPageParams'
p359
I1
sS'pileup'
p360
I2
sS'alerts'
p361
I1
sS'unfoldsgigyaappId3gtUbleJNtrRITgx1mMci7GcIrH8xL9WVfAbzSa4zpFrRwnpqeYd8QTRkr7VCenableOnLeaftrueenableOnFirstZonetrueshareStatsPostURLhttpactioneventcnncomapiv1eventaddEventlivefyrekeyazjgDYu5pGDaNSl4JUIDKEqSUmobileCommentsBaseUrlhttpcnnbootstrapfyrecoapi11publiccommentsncommentsnetworkcnnfyreconetworkNamecnnsiteId353270srcDomainhttpcdnlivefyrecomappembedappembed080timeLineModulePollInterval1tokenEndpointcnnloginappprodservicesec2dmtionetserviceslivefyreauthtokenmsibauthUrlcnncommentslivefyreauthenticationbaseUrlhttpsaudiencecnncomservicescnnerrorUrlcnncommentslivefyreerrorloginUrlcnncommentslivefyreloginwhatsappbaseUrlwhatsappsendtextCNN'
p362
I1
sS'ISISlinked'
p363
I1
sS'falseenableLiveVideoGeoCheck'
p364
I1
sS'nullif'
p365
I1
sS'httpssecure'
p366
I1
sS'dies'
p367
I1
sS'norail'
p368
I1
sS'update'
p369
I1
sS'diet'
p370
I1
sS'scores'
p371
I1
sS'died'
p372
I1
sS'billion'
p373
I1
sS'happening'
p374
I1
sS'musclesthumbnailhttpi2cdncnncomcnnnextdamassets16110814400902marijuanalegislationfilesmall11jpgdurationdescriptionJust'
p375
I1
sS'daily'
p376
I1
sS'subscription'
p377
I2
sS'nineyearold'
p378
I1
sS'time'
p379
I6
sS'serious'
p380
I1
sS'sayslayouturi20161122motorsportf1lewishamiltonnicorosbergabudhabishowdownindexhtmlheadline21'
p381
I1
sS'coach'
p382
I2
sS'global'
p383
I1
sS'trueenableContainerInjection'
p384
I1
sS'manager'
p385
I1
sS'issuedthumbnailhttpi2cdncnncomcnnnextdamassets151128134016strasbourgchristmasmarketsmall11jpgdurationdescriptionThe'
p386
I1
sS'layers'
p387
I1
sS'father'
p388
I1
sS'hrefcookiecookiesu003cau003cdiv'
p389
I1
sS'Broadcast'
p390
I1
sS'0'
p391
I15
sS'layouturi20161121opinionsfrancenewracismopinionmondonindexhtmlheadlineFrance'
p392
I1
sS'Day'
p393
I1
sS'adviser'
p394
I1
sS'Djokovicthumbnailhttpi2cdncnncomcnnnextdamassets161122121444borisbeckerteasesmall11jpgdurationdescriptionIts'
p395
I1
sS'string'
p396
I1
sS'windowsfasyncconfig'
p397
I1
sS'Chris'
p398
I1
sS'handsthumbnailhttpi2cdncnncomcnnnextdamassets161021164051expnascartotalcoverageorig00002001small11jpgduration0213descriptionNASCAR'
p399
I1
sS'err'
p400
I7
sS'falseenableOptimizely'
p401
I1
sS'item'
p402
I1
sS'team'
p403
I4
sS'inpersistentCtaTextExperienceremoveMinimumDimensionsTimeout1500temppassTempPassCNN10minCNNHtml5PlayerConfig'
p404
I1
sS'quantservecomaquantjsapD1yc5zQgjmqr5elemasync'
p405
I1
sS'daysthumbnailhttpi2cdncnncomcnnnextdamassets161122070239donaldtrumpoctober292016small11jpgdurationdescriptionThere'
p406
I1
sS'tou003cbrall'
p407
I2
sS'boomrready'
p408
I2
sS'slotElementId'
p409
I1
sS'current'
p410
I1
sS'goes'
p411
I1
sS'international'
p412
I2
sS'Me'
p413
I1
sS'Nicholson'
p414
I1
sS'lazyLoad'
p415
I1
sS'earthquake'
p416
I1
sS'change'
p417
I1
sS'weird'
p418
I1
sS'hostsearchwmoneycnncom'
p419
I1
sS'fdmutatefunction'
p420
I1
sS'reclaim'
p421
I1
sS'articleListuri20161122politicsdonaldtrumpdisavowgroupsnewyorktimesindexhtmlheadlineDonald'
p422
I1
sS'retired'
p423
I1
sS'merely'
p424
I1
sS'Agencys'
p425
I1
sS'UsePrivacy'
p426
I1
sS'market'
p427
I1
sS'August'
p428
I1
sS'visit'
p429
I2
sS'falsewindowsfasyncconfiguseCanonical'
p430
I1
sS'https'
p431
I2
sS'adbnratf01adrectatf01adrectbtf02tryCount'
p432
I1
sS'MusicGadgetsCyber'
p433
I2
sS'club'
p434
I1
sS'thumbnailhttpi2cdncnncomcnnnextdamassets161114182240aditiashokswinggolfsmall11jpgdurationdescriptionAs'
p435
I1
sS'apparent'
p436
I1
sS'clue'
p437
I1
sS'dociframe'
p438
I1
sS'c125920'
p439
I1
sS'sous'
p440
I1
sS'following'
p441
I2
sS'Out'
p442
I1
sS'heart'
p443
I2
sS'Media'
p444
I2
sS'newsletters'
p445
I1
sS'allowed'
p446
I1
sS'watching'
p447
I2
sS'1'
p448
I4
sS'adModestandardamazontimeoutForGetAdsCallback1000vendorStringamazonaspenadTypeDefaultprerollcontentModeDefaultvodcontextdefaultcustomertheoplatformNamejssitecnnbitrateNamehls1080pblankMp4AssetPathhttppmdcdnturnercomcnnelementvideoassetsblankmp4capTopicsvendorStringcapenabledPageTypessectionvideosfreewheelassetIdPrefixcnnconstantSsidPrefixconstfocusKeyNameinFocushtmlAdLoadTimeout5000networkSuffixturnerhtml5playernametheoprerollTemporalSlotNamePreroll1profileIdcnnbvpplayerserverUrlhttpbea4cnncomadp1submitRequestTimeout5videoProgressDetectTimeout5000videoStartDetectTimeout5000vpaidCreativeTimeoutDelay5000fullscreenMaxBitrateInfinityjsmdvideoPlayertheokruxvendorStringkruxmaxBitrate1500000onAdEndtokenCompletedonAdPlaytokenonTrackingContentBeginplayOptionsThumbnonecontentModevodcontentSourcecnnonTrackingContentStartcontentTypeVODposterSizeName460x259preloadautoprogressFixedDecimal3progressTrackingInterval40theoPlayerinitialRenditionlowisEmbeddabletruelibraryLocationelementjsvendortheoplayer1664loaderFileNametheoplayerloaderjssubtitlesEnabledByDefaultfalsetargetBuffer20CNNHtml5PlayerConfigenabled'
p449
I1
sS'heartbreaking'
p450
I2
sS'produce'
p451
I1
sS'designed'
p452
I1
sS'boomerangAddMeasureVars'
p453
I1
sS'guys'
p454
I1
sS'goal'
p455
I1
sS'golfers'
p456
I1
sS'natural'
p457
I1
sS'Fukushima'
p458
I1
sS'HotelsFashionDesignArchitectureArtsAutosLuxuryFeaturesFreedom'
p459
I2
sS'indeed'
p460
I1
sS'Breaking'
p461
I3
sS'Jan'
p462
I2
sS'jobthumbnailhttpi2cdncnncomcnnnextdamassets161112194750nigelfaragedonaldtrumpmississippismall11jpgdurationdescriptionlayouturi20161122europefranceqatariwomenrobbedindexhtmlheadlineSisters'
p463
I1
sS'Newsvar'
p464
I1
sS'initClickTalewindow'
p465
I2
sS'FeaturesVideoVideo'
p466
I2
sS'titleCNN'
p467
I1
sS'window'
p468
I2
sS'offers'
p469
I2
sS'World'
p470
I3
sS'hop'
p471
I1
sS'Cable'
p472
I1
sS'views'
p473
I1
sS'safariwebServiceURLhttpsalertshubcnncomdistributionhubwebsitePushIDwebcomcnnredalertCNNadTimers'
p474
I1
sS'seathumbnailhttpi2cdncnncomcnnnextdamassets160519151115migalooprivatesubmersibleyacht2small11jpgdurationdescriptionThe'
p475
I1
sS'wont'
p476
I2
sS'name'
p477
I1
sS'apiloaderBaseURLFULLPATHhttpwwwcnncomelementwidgetvideovideoapiapiloaderBaseURLelementwidgetvideovideoapiapiloaderBaseURLLocalhttplocalhostcnncom3000buildapiuseLegacyVideoLoadertrueversionlatestautoStartWhenCmsEnabledenableSectionFrontstruemutePlayertruerememberMutePlayerTime0collectionplayNextVideoTimeout1500delayVideoCarouseltruegoFreePreviewadobeEnvironmentprodadobeSwfPathelementappscvp30swfAccessEnablerLoaderswfaspenContextprev10endSlatectaTextSign'
p478
I1
sS'TurnernbspBroadcastingnbspSystemnbspInc'
p479
I1
sS'challenges'
p480
I2
sS'begun'
p481
I1
sS'girl'
p482
I2
sS'doccreateElementscriptscriptsrc'
p483
I1
sS'disasters'
p484
I1
sS'ultimately'
p485
I1
sS'space'
p486
I2
sS'bridesthumbnailhttpi2cdncnncomcnnnextdamassets160805171639vietnamchinachildtraffickingescaped2small11jpgdurationdescriptionWhen'
p487
I1
sS'Connected'
p488
I1
sS'targetblanktroubleshooting'
p489
I2
sS'happenings'
p490
I1
sS'amznkey3288'
p491
I1
sS'million'
p492
I2
sS'CNNUtilsexistsCNNcontentModelanalyticscaptopics'
p493
I1
sS'training'
p494
I1
sS'momentsthumbnailhttpi2cdncnncomcnnnextdamassets161121084304princeharrytimesabroadsmall11jpgduration0106descriptionAs'
p495
I1
sS'diethumbnailhttpi2cdncnncomcnnnextdamassets140407073053golfbucketlistroyaltroon14thgreensmall11jpgdurationdescriptionWe'
p496
I1
sS'transition'
p497
I2
sS'disguises'
p498
I1
sS'fd'
p499
I3
sS'childhood'
p500
I2
sS'waves'
p501
I1
sS'Asia'
p502
I1
sS'pageType'
p503
I1
sS'Probably'
p504
I1
sS'Hollywood'
p505
I2
sS'city'
p506
I2
sS'little'
p507
I1
sS'idadmod85a882a72scriptNamehttpzcdncnncomadscnnisinglescnnientitlement01jsidadmode74dbd68dscriptNamehttpzcdncnncomadscnnisinglescnnientitlement02jsidadmod596291844scriptNamehttpzcdncnncomadscnnisinglescnnientitlement03jsidadmod9a979d11scriptNamehttpzcdncnncomadscnnisinglescnnientitlement04jsidadmod2b3ba0432scriptNamehttpzcdncnncomadscnnisinglescnnientitlement05js'
p508
I1
sS'Monday'
p509
I2
sS'inpersistentCtaTextExperienceremoveMinimumDimensionsTimeout1500temppassTempPassCNN10minhtml5PlayeradModestandardamazontimeoutForGetAdsCallback1000vendorStringamazonaspenadTypeDefaultprerollcontentModeDefaultvodcontextdefaultcustomertheoplatformNamejssitecnnbitrateNamehls1080pblankMp4AssetPathhttppmdcdnturnercomcnnelementvideoassetsblankmp4capTopicsvendorStringcapenabledPageTypessectionvideosfreewheelassetIdPrefixcnnconstantSsidPrefixconstfocusKeyNameinFocushtmlAdLoadTimeout5000networkSuffixturnerhtml5playernametheoprerollTemporalSlotNamePreroll1profileIdcnnbvpplayerserverUrlhttpbea4cnncomadp1submitRequestTimeout5videoProgressDetectTimeout5000videoStartDetectTimeout5000vpaidCreativeTimeoutDelay5000fullscreenMaxBitrateInfinityjsmdvideoPlayertheokruxvendorStringkruxmaxBitrate1500000onAdEndtokenCompletedonAdPlaytokenonTrackingContentBeginplayOptionsThumbnonecontentModevodcontentSourcecnnonTrackingContentStartcontentTypeVODposterSizeName460x259preloadautoprogressFixedDecimal3progressTrackingInterval40theoPlayerinitialRenditionlowisEmbeddabletruelibraryLocationelementjsvendortheoplayer1664loaderFileNametheoplayerloaderjssubtitlesEnabledByDefaultfalsetargetBuffer20liveStreamblockSlatemessageTextWe'
p510
I1
sS'caught'
p511
I1
sS'returns'
p512
I1
sS'2'
p513
I1
sS'getAdkey'
p514
I1
sS'stricthtmlclassName'
p515
I1
sS'season'
p516
I1
sS'scrSrcscriptElement'
p517
I1
sS'released'
p518
I1
sS'Trumps'
p519
I5
sS'roadthumbnailhttpi2cdncnncomcnnnextdamassets161122112010t1insetbuscrashdriversmall11jpgdurationdescriptionA'
p520
I1
sS'11'
p521
I1
sS'17'
p522
I1
sS'edition'
p523
I6
sS'19'
p524
I1
sS'CNNrightRailConfig'
p525
I1
sS'trekking'
p526
I1
sS'browser'
p527
I2
sS'supremacist'
p528
I1
sS'topics'
p529
I1
sS'marijuana'
p530
I3
sS'Japanese'
p531
I1
sS'Winnipeg'
p532
I1
sS'foiled'
p533
I1
sS'sells'
p534
I1
sS'Chinathumbnailhttpi2cdncnncomcnnnextdamassets161122033133deadlypileupinchinacnnoriginal00000000small11jpgduration0059descriptionOver'
p535
I1
sS'surgery'
p536
I1
sS'DoormailchimpId6da287d761newsletterID6da287d761subImageicdncnncomcnnelementimg40subscriptionfivethingsjpgbuttonTextKnow'
p537
I1
sS'aside'
p538
I1
sS'potential'
p539
I1
sS'winedition'
p540
I1
sS'investigations'
p541
I1
sS'price'
p542
I1
sS'layouturi20161114fashionseeyourselfxhumanfuturesexpandedindexhtmlheadlineOur'
p543
I1
sS'falseCNNImageBreakpoints'
p544
I1
sS'000000'
p545
I3
sS'energize'
p546
I1
sS'trafficking'
p547
I2
sS'disavows'
p548
I1
sS'shot'
p549
I1
sS'spaces'
p550
I1
sS'shoe'
p551
I1
sS'htmldocument'
p552
I1
sS'We'
p553
I1
sS'title'
p554
I3
sS'layouturi20161121asiaromancegamingjapanindexhtmlheadlineWhy'
p555
I1
sS'outside'
p556
I1
sS'ranking'
p557
I1
sS'hostage'
p558
I3
sS'hrefcookiecookiesu003ca'
p559
I1
sS'Large'
p560
I1
sS'nofontfacetry'
p561
I1
sS'artist'
p562
I1
sS'falsedom'
p563
I1
sS'USCAPRVICNNWeatherConfig'
p564
I1
sS'concert'
p565
I2
sS'calendar'
p566
I1
sS'httppixel'
p567
I1
sS'BusinessmailchimpId6711ab179fnewsletterID6711ab179fsubImageicdncnncomcnnelementimg40subscriptionquestmeansbusinesspngbuttonTextFresh'
p568
I1
sS'doccreateElementNShttpwwww3org1999xhtml'
p569
I1
sS'htmlclassNamereplacebfontfaceb'
p570
I1
sS'globalthumbnailhttpi2cdncnncomcnnnextdamassets161121171033jidennacardsmall11jpgdurationdescriptionNigerian'
p571
I1
sS'usNewslettersWork'
p572
I1
sS'detailssrcscriptasync'
p573
I1
sS'Bangalore'
p574
I1
sS'dismissCookieexpirationTue'
p575
I1
sS'companionAdStates'
p576
I1
sS'Messi'
p577
I2
sS'region'
p578
I1
sS'according'
p579
I2
sS'flipped'
p580
I1
sS'tour'
p581
I2
sS'railway'
p582
I1
sS'cancer'
p583
I3
sS'Travel'
p584
I1
sS'httpeditionicdncnncomabundlesif'
p585
I1
sS'teammate'
p586
I1
sS'quakelayouticonTypevideourivideosworld20161122deadlypileupinchinacnnoriginalcctvheadlineHuge'
p587
I1
sS'Serviceu003ca'
p588
I1
sS'But'
p589
I2
sS'breath'
p590
I2
sS'Melania'
p591
I2
sS'Schools'
p592
I1
sS'trueenableAppia'
p593
I1
sS'shortlist'
p594
I1
sS'robbed'
p595
I2
sS'Marc'
p596
I1
sS'photos'
p597
I1
sS'skiers'
p598
I1
sS'spirit'
p599
I1
sS'captivity'
p600
I1
sS'revoked'
p601
I1
sS'Lauren'
p602
I1
sS'Better'
p603
I1
sS'thissignMeUpSign'
p604
I1
sS'trueenableChartbeat'
p605
I1
sS'agreeu003cdivCNNVideoConfig'
p606
I1
sS'familiarlayouturi20161115techgirlsdesignafricaspacesatelliteindexhtmlheadlineTeen'
p607
I1
sS'movements'
p608
I1
sS'globetrotting'
p609
I1
sS'shuts'
p610
I1
sS'pay'
p611
I2
sS'shifts'
p612
I1
sS'html'
p613
I1
sS'speech'
p614
I1
sS'hostsearchwgooglew23ww'
p615
I1
sS'struggling'
p616
I1
sS'document'
p617
I3
sS'events'
p618
I2
sS'status'
p619
I1
sS'I'
p620
I3
sS'driver'
p621
I3
sS'youthoriented'
p622
I1
sS'holders'
p623
I1
sS'preferenceUSInternationalConfirmFacebookTwitterInstagram'
p624
I1
sS'undefined'
p625
I1
sS'magical'
p626
I1
sS'desktopSSID'
p627
I1
sS'In'
p628
I1
sS'Arenas'
p629
I1
sS'United'
p630
I2
sS'Service'
p631
I4
sS'money'
p632
I1
sS'documentcreateElementiframemeasuresAdded'
p633
I1
sS'Mondaylayouturi20161121ususeuropetravelalertisisindexhtmlheadlineISISlinked'
p634
I1
sS'Cuomo'
p635
I1
sS'fastdomeztpushqacct'
p636
I1
sS'euros'
p637
I1
sS'4'
p638
I2
sS'struck'
p639
I1
sS'CNNgo'
p640
I2
sS'Denny'
p641
I1
sS'Tour'
p642
I1
sS'world'
p643
I8
sS'functiontagName'
p644
I1
sS'wineditionadTargets'
p645
I1
sS'server'
p646
I1
sS'layouturi20161122ustennesseechattanoogaschoolbusaccidentindexhtmlheadlineSchool'
p647
I1
sS'tsunami'
p648
I2
sS'London'
p649
I1
sS'FeedmailchimpId87688954aanewsletterID87688954aasubImageicdncnncomcnnelementimg40subscriptiongreatbigstoryjpgbuttonTextAdd'
p650
I1
sS'newsletteru003cbrThanks'
p651
I1
sS'sneaker'
p652
I2
sS'Entertainment'
p653
I2
sS'ezt'
p654
I2
sS'West'
p655
I2
sS'usAbout'
p656
I1
sS'Migaloo'
p657
I1
sS'New'
p658
I1
sS'memories'
p659
I1
sS'withdrawn'
p660
I1
sS'breakingNewsttl120000urlhttpdatacnncomjsonpbreakingnewsinternationaljsonCNNGoFreePreviewConfig'
p661
I1
sS'pageTopheadlineauthorshowNameisArticleVideoCollectionfalsepublishDate20161122T200521ZpageBrandingdefaultchartbeatsectionsbrandingcontentpagedefaultbrandingcontentzonedefaultbrandingcontentcontainerdefaultbrandingcontentcard'
p662
I1
sS'provider'
p663
I2
sS'beaconSent'
p664
I2
sS'hrefhttpeditioncnncom20161120europefranceprimaryindexhtml'
p665
I1
sS'scientific'
p666
I1
sS'business'
p667
I1
sS'NowdescriptionWe'
p668
I1
sS'iconic'
p669
I1
sS'doccreateElementtagNamewinWRInitTime'
p670
I1
sS'targetblankNicolas'
p671
I1
sS'truevar'
p672
I1
sS'fwProfile'
p673
I1
sS'entitlementSingletons'
p674
I1
sS'favorite'
p675
I2
sS'youve'
p676
I1
sS'No'
p677
I1
sS'Add'
p678
I6
sS'rising'
p679
I1
sS'docreferrerreplacehttpswi'
p680
I1
sS'visalayouturi20161121healthjessicawhelancancerphotographtrndindexhtmlheadlineGirl'
p681
I1
sS'CNNMoney'
p682
I1
sS'prepare'
p683
I1
sS'hes'
p684
I1
sS'Wheeler'
p685
I1
sS'trueenableVideoExperienceUnificationVideoPinning'
p686
I1
sS'ridethumbnailhttpi2cdncnncomcnnnextdamassets161122170852nigerianfootballerattemptstobreakguinnessworldrecordsmall11jpgdurationdescriptionA'
p687
I1
sS'Obama'
p688
I1
sS'complete'
p689
I1
sS'fanatic'
p690
I1
sS'brain'
p691
I1
sS'Harry'
p692
I2
sS'Original'
p693
I1
sS'trySlotsi'
p694
I1
sS'bucket'
p695
I1
sS'agree'
p696
I1
sS'threshold1200disableHoverThreshold1CNNBylineImages'
p697
I1
sS'c95680'
p698
I1
sS'getRefDom'
p699
I1
sS'politics'
p700
I1
sS'lovethumbnailhttpi2cdncnncomcnnnextdamassets161122085248teaseromancegamingonjapansmall11jpgdurationdescriptionlayouturi20161122footballpuskasawardfaizgoalindexhtmlheadlineBest'
p701
I1
sS'drivers'
p702
I2
sS'workday'
p703
I1
sS'5'
p704
I4
sS'scheduleFaces'
p705
I2
sS'registryURL'
p706
I1
sS'At'
p707
I1
sS'championship'
p708
I1
sS'Jidenna'
p709
I1
sS'durations'
p710
I1
sS'48804'
p711
I1
sS'CNN'
p712
I19
sS'trueenableChartbeatMAB'
p713
I1
sS'building'
p714
I1
sS'gastric'
p715
I1
sS'Mexican'
p716
I1
sS'nullBOOMRcnntimeout'
p717
I1
sS'slotsindexOfslotElementId'
p718
I1
sS'hugely'
p719
I1
sS'cnnmobileweblinktag2CNNBannerBreakpoints'
p720
I1
sS'Canada'
p721
I1
sS'scriptElement'
p722
I1
sS'Obamacare'
p723
I1
sS'tours'
p724
I1
sS'children'
p725
I2
sS'wavesthumbnailhttpi2cdncnncomcnnnextdamassets161122122018japanquaketsunamiwaves2small11jpgduration0102descriptionA'
p726
I1
sS'former'
p727
I2
sS'init'
p728
I1
sS'program'
p729
I1
sS'siblings'
p730
I1
sS'Qatari'
p731
I1
sS'EditionmailchimpIdeubreakingnewsnewsletterIDeubreakingnewsisGigyatruesubImageicdncnncomcnnelementimg40subscriptioninternationalgraphicjpgbuttonTextStay'
p732
I1
sS'And'
p733
I2
sS'detailsasyncscripttype'
p734
I1
sS'balancing'
p735
I1
sS'trueenableOutbrainVideoKPI'
p736
I1
sS'avatarhostavatarcnncominlineShareBarpageTypearticleembedscriptsinstagramjsplatforminstagramcomenUSembedsjstwitterjsplatformtwittercomwidgetsjslivefyrejscdnlivefyrecomLivefyrejsfacebookMessengerappId989591237802489pageId5550296508buttonColorbluebuttonSizexlargeverbiageChat'
p737
I1
sS'drugged'
p738
I1
sS'careerlayouticonTypegalleryuri20161025sportgallerymosticonictrainersindexhtmlheadline11'
p739
I1
sS'list'
p740
I2
sS'layouturi20161122entertainmentgigihadidmelaniatrumpindexhtmlheadlineGigi'
p741
I1
sS'Novak'
p742
I1
sS'study'
p743
I3
sS'skin'
p744
I1
sS'editioncnncommainhomepage'
p745
I1
sS'negotiator'
p746
I1
sS'perspective'
p747
I1
sS'functioning'
p748
I1
sS'darkness'
p749
I1
sS'section'
p750
I1
sS'brief'
p751
I1
sS'version'
p752
I3
sS'apologized'
p753
I1
sS'jQuerydocumentreadyadSlotTimeoutBOOMRplugins'
p754
I1
sS'ArrayisArraywineditionadTargetscapTopics'
p755
I1
sS'documentgetElementsByTagNamehtml0Modernizrloadtest'
p756
I1
sS'movement'
p757
I2
sS'falseenableCriteoAds'
p758
I1
sS'answers'
p759
I1
sS'traffickersthumbnailhttpi2cdncnncomcnnnextdamassets160713092350iempathizepunishersmall11jpgdurationdescriptionAcross'
p760
I1
sS'tracks'
p761
I1
sS'layouturi20161116sportoldfriendsracehorseretirementfarmindexhtmlheadlineIf'
p762
I1
sS'strong'
p763
I1
sS'WatchTV'
p764
I2
sS'ahead'
p765
I1
sS'PolicyAdChoicesAdvertise'
p766
I1
sS'internationaltoUpperCasehost'
p767
I1
sS'private'
p768
I2
sS'falseBOOMRcnntimer'
p769
I1
sS'HomeRegionsUSAfricaAmericasAsiaChinaEuropeMiddle'
p770
I1
sS'pick'
p771
I2
sS'PoliticsMoneyEntertainmentTechSportTravelStyleFeaturesVideoLive'
p772
I1
sS'suddenly'
p773
I1
sS'Nigeria'
p774
I1
sS'Europe'
p775
I2
sS'conventional'
p776
I1
sS'takes'
p777
I1
sS'markets'
p778
I2
sS'contours'
p779
I1
sS'teen'
p780
I1
sS'American'
p781
I1
sS'20000'
p782
I1
sS'fatal'
p783
I1
sS'windowperformancemarkfooterStart'
p784
I1
sS'culturelayouticonTypegalleryuri20151106golfgallerygolfinitiativegalleryduplicate2indexhtmlheadline19'
p785
I1
sS'Your'
p786
I3
sS'intlindexhtml'
p787
I1
sS'prompt'
p788
I1
sS'sense'
p789
I1
sS'firmly'
p790
I1
sS'information'
p791
I1
sS'width416'
p792
I1
sS'fetchUrl'
p793
I1
sS'37612windowsfasyncconfigdomain'
p794
I1
sS'riselayouturi20161122politicstrumpfirst100daysplanindexhtmlheadlineTrumps'
p795
I1
sS'winperformancegetEntriesByTypemeasure'
p796
I1
sS'trueenableProximic'
p797
I1
sS'coming'
p798
I2
sS'anytime'
p799
I2
sS'tracklayouticonTypevideourivideosworld20161103expmarcforgionecheftotalcoverageorigcnnheadlineWhy'
p800
I1
sS'playing'
p801
I1
sS'textjavascriptscptparentNodeinsertBeforeelem'
p802
I1
sS'trySlotslengthwhereBOOMR'
p803
I1
sS'Atlas'
p804
I1
sS'sitesiReportInternational'
p805
I1
sS'slotspushtrySlotsitrySlotsi'
p806
I1
sS'Stein'
p807
I1
sS'resort'
p808
I1
sS'detected'
p809
I1
sS'Quest'
p810
I1
sS'soccer'
p811
I4
sS'apartlayouturi20161122politicskfilemichaelflynnaugustspeechindexhtmlheadlineTrump'
p812
I1
sS'latestmustread'
p813
I1
sS'return'
p814
I10
sS'Michael'
p815
I2
sS'predator'
p816
I1
sS'Modernizrfontfacecomplete'
p817
I1
sS'communities'
p818
I1
sS'trueenableRubiconFastlane'
p819
I1
sS'Chopek'
p820
I1
sS'courses'
p821
I3
sS'threshold640CNNbundleHost'
p822
I1
sS'citySearchweathercitySearchenableInHeadertrueenableInFootertruegetForecastweathergetForecastserviceCitySearchHosthttpweatherapicnnioserviceForecastHosthttpweatherapicnniostoredLocationsAmount6useCNNServicetruetry'
p823
I1
sS'Council'
p824
I1
sS'hrefwwwcnncomhelpcnngotroubleshootinghtml'
p825
I2
sS'Poll'
p826
I1
sS'jsusermsgagreeI'
p827
I1
sS'week'
p828
I1
sS'weight'
p829
I2
sS'drugtesting'
p830
I1
sS'More'
p831
I1
sS'7'
p832
I1
sS'jQuerydocumentonZonesAndDomReadyfunction'
p833
I1
sS'preferenceUSInternationalConfirmInternational'
p834
I1
sS'risen'
p835
I1
sS'Gulfthumbnailhttpi2cdncnncomcnnnextdamassets161109162656trumpmideastchallengespkgrobertson00002813small11jpgdurationdescriptionAfter'
p836
I1
sS'winsetTimeoutfunction'
p837
I1
sS'imagine'
p838
I1
sS'registryFilesplit0'
p839
I1
sS'epicenter'
p840
I1
sS'launch'
p841
I1
sS'persists'
p842
I2
sS'Kellyanne'
p843
I1
sS'systemthumbnailhttpi2cdncnncomcnnnextdamassets161115175749mailrail13small11jpgdurationdescriptionFive'
p844
I1
sS'Presidentelect'
p845
I2
sS'major'
p846
I2
sS'dont'
p847
I1
sS'feel'
p848
I2
sS'railwaysthumbnailhttpi2cdncnncomcnnnextdamassets160429165844kenyarailwayviewsmall11jpgdurationdescriptionlayouturi20161122opinionstrumpnotpivotandelmanopinionindexhtmlheadlineRead'
p849
I1
sS'feet'
p850
I1
sS'competitionlayouticonTypegalleryuri20161102golfgallerytigerwoodshighslowsdecember2016returnindexhtmlheadlineTiger'
p851
I1
sS'Indian'
p852
I1
sS'miss'
p853
I1
sS'story'
p854
I2
sS'leading'
p855
I1
sS'trend'
p856
I1
sS'storm'
p857
I1
sS'trueenableTiming'
p858
I1
sS'2115'
p859
I2
sS'muscles'
p860
I1
sS'option'
p861
I1
sS'curiosityfueled'
p862
I1
sS'youth'
p863
I2
sS'raquoInternational'
p864
I1
sS'timethumbnailhttpi2cdncnncomcnnnextdamassets161120150745conjoinedtwinsseeeachother01small11jpegdurationdescriptionlayouturi20161121asiachinausmilitarydrillindexhtmlheadlineUS'
p865
I1
sS'risks'
p866
I1
sS'Click'
p867
I2
sS'wasnt'
p868
I1
sS'69magnitude'
p869
I1
sS'layouturi20161122footballsergeaurierpsgvisachampionsleaguearsenalindexhtmlheadlinePSG'
p870
I1
sS'confirms'
p871
I1
sS'fading'
p872
I1
sS'AmazeddescriptionWe'
p873
I1
sS'traffickingthumbnailhttpi2cdncnncomcnnnextdamassets160822092150cfpcanadaoutreach00033105small11jpgduration0446descriptionA'
p874
I1
sS'negotiationlayouticonTypevideourivideosworld20161122japanquaketsunamiwavessfcorigcnnheadlineJapan'
p875
I1
sS'officers'
p876
I1
sS'longArticlearticleLength6400enableAdLocktrueepicadIdadrectbtf01columnPosition1positiondesktopzonePosition1outbrainwidgetIdAR42shortArticleepicadIdadrectatf03columnPosition0positiondesktopzonePosition3CNNSectionConfig'
p877
I1
sS'play'
p878
I3
sS'HeroesCNN'
p879
I2
sS'itthumbnailhttpi2cdncnncomcnnnextdamassets161115182157photoviz8small11jpgdurationdescriptionlayouturi20161122africanigerianfootballerattemptstobreakguinnessworldrecordindexhtmlheadlineFootballer'
p880
I1
sS'themlayouturi20161122tennisborisbeckernovakdjokovicatpworldfinalstennisindexhtmlheadlineBoris'
p881
I1
sS'Whelan'
p882
I1
sS'significant'
p883
I2
sS'services'
p884
I2
sS'wineditionadTargetscapTopicsfor'
p885
I1
sS'The'
p886
I5
sS'Jessica'
p887
I1
sS'valuablesthumbnailhttpi2cdncnncomcnnnextdamassets150325082132socialgfxbreakingnewssmall11jpgdurationdescriptionTwo'
p888
I1
sS'CNNWebpackAssets'
p889
I2
sS'mobile'
p890
I1
sS'UpnoThanksButtonTextView'
p891
I1
sS'cover'
p892
I1
sS'barred'
p893
I1
sS'Speed'
p894
I1
sS'golf'
p895
I5
sS'phenomenon'
p896
I1
sS'aboutnameQuestsubTitleQuest'
p897
I1
sS'outdoor'
p898
I1
sS'Islamism'
p899
I1
sS'headlines'
p900
I1
sS'hrefhttpwwwcnncom20161121asiajapanearthquakeindexhtmlearthquake'
p901
I1
sS'officelayouturi20161122politicsconwaynoclintonchargesdonaldtrumpindexhtmlheadlineTrump'
p902
I1
sS'giant'
p903
I1
sS'weightthumbnailhttpi2cdncnncomcnnnextdamassets150721151902overweightmaneatingsmall11jpgdurationdescriptionIf'
p904
I1
sS'moments'
p905
I3
sS'4layouturi20161121designphotovizvisualizinginformationthroughphotographyindexhtmlheadlineReality'
p906
I1
sS'prisonthumbnailhttpi2cdncnncomcnnnextdamassets16112119040804isissecretprisonsmall11jpgdurationdescriptionlayouturi20161122africawhyjidennathinksitsafricasmomentindexhtmlheadlineHow'
p907
I1
sS'sacking'
p908
I1
sS'Masters'
p909
I1
sS'weve'
p910
I1
sS'hit'
p911
I1
sS'Subri'
p912
I1
sS'feels'
p913
I1
sS'falseCNNAdsConfig'
p914
I1
sS'BOOMRplugins'
p915
I1
sS'CNNpageTimer'
p916
I1
sS'For'
p917
I1
sS'Weprimeve'
p918
I1
sS'thumbnailhttpi2cdncnncomcnnnextdamassets1602241034480180smovies0224small11jpgdurationdescriptionOld'
p919
I1
sS'close'
p920
I2
sS'normalizing'
p921
I1
sS'pictures'
p922
I1
sS'layouticonTypevideouri20161010motorsportgallerythestoryofthe2016seasonindexhtmlheadlineF1s'
p923
I1
sS'Jurgen'
p924
I1
sS'Terry'
p925
I1
sS'available'
p926
I1
sS'unconscious'
p927
I1
sS'sold'
p928
I2
sS'movers'
p929
I1
sS'annual'
p930
I2
sS'Nigerian'
p931
I1
sS'buzz'
p932
I1
sS'approve'
p933
I1
sS'cnncomif'
p934
I1
sS'simple'
p935
I1
sS'layouturi20161122sportwadarussiadopingindexhtmlheadlineRussia'
p936
I1
sS'truedone'
p937
I1
sS'dielayouticonTypegalleryuri20160531sportgallerymigalooprivatesubmersibleyachtindexhtmlheadlineLuxury'
p938
I1
sS'political'
p939
I2
sS'due'
p940
I1
sS'convicted'
p941
I1
sS'rivals'
p942
I1
sS'secret'
p943
I1
sS'woke'
p944
I1
sS'cgompulsenetboomerang3ELNEXNZJHGJW9AGMCCCHF5K6BOOMRlstart'
p945
I1
sS'Saharathumbnailhttpi2cdncnncomcnnnextdamassets161107153758atlasmountainski1small11jpgdurationdescriptionMorocco'
p946
I1
sS'supportedheightsmall140medium120large130idieUnsupportedmessageTextThank'
p947
I1
sS'apiEndpointhttpsmailcarcnncomapiv1'
p948
I1
sS'else'
p949
I7
sS'reticence'
p950
I1
sS'races'
p951
I2
sS'falloutthumbnailhttpi2cdncnncomcnnnextdamassets161121081054gigihadidamericanmusicawardssmall11jpgdurationdescriptionGigi'
p952
I1
sS'look'
p953
I2
sS'straight'
p954
I1
sS'bill'
p955
I1
sS'error'
p956
I4
sS'victimlayouturi20161122worlddonaldtrumpnigelfarageusambassadorindexhtmlheadlineUK'
p957
I1
sS'Faizthumbnailhttpi2cdncnncomcnnnextdamassets161122115253footballgoalnetsmall11jpgdurationdescriptionHe'
p958
I1
sS'leans'
p959
I1
sS'Hamlin'
p960
I1
sS'owes'
p961
I1
sS'leaving'
p962
I1
sS'increased'
p963
I1
sS'null'
p964
I1
sS'Melanias'
p965
I1
sS'httpgocnncomstreamCNNDemandLoadConfig'
p966
I1
sS'layouturi20161122europeturkeychildrapebillindexhtmlheadlineTurkey'
p967
I1
sS'Arsenalthumbnailhttpi2cdncnncomcnnnextdamassets161122154553sergeauriersmall11jpgdurationdescriptionAn'
p968
I1
sS'alert'
p969
I2
sS'moving'
p970
I1
sS'recent'
p971
I1
sS'layouturi20160713opinions5disguiseshumantraffickerindexhtmlheadlineThe'
p972
I1
sS'spent'
p973
I1
sS'scpt'
p974
I1
sS'novalueset'
p975
I1
sS'c000'
p976
I1
sS'EditionUSInternationalArabicEspa\xc3\xb1olSet'
p977
I2
sS'repealing'
p978
I1
sS'Internet'
p979
I1
sS'injuries'
p980
I1
sS'Sarkozys'
p981
I1
sS'retirement'
p982
I1
sS'hostsearchwfacebookcom'
p983
I1
sS'hrefhttpeditioncnncomvideosworld20161109trumpmideastchallengespkgrobertsoncnn'
p984
I1
sS'homeland'
p985
I2
sS'remaining'
p986
I1
sS'CNNZones'
p987
I1
sS'doors'
p988
I1
sS'Klinsmannlayouturi20161122healthconjoinedtwinsmonthlaterrecoveryindexhtmlheadlineSeparated'
p989
I1
sS'game'
p990
I1
sS'falseenableHtml5Player'
p991
I1
sS'UTCnameCNNtosAgreedoldCookieExpirationTue'
p992
I1
sS'jobthumbnailhttpi2cdncnncomcnnnextdamassets161118111512trumptaxplansmall11jpgdurationdescriptionTwo'
p993
I1
sS'OK'
p994
I2
sS'storiesoptIntelligencePID25413608valuesnameBreakingNewssubTitleBreaking'
p995
I1
sS'shaped'
p996
I1
sS'OS'
p997
I1
sS'Find'
p998
I1
sS'Submersible'
p999
I1
sS'google'
p1000
I1
sS'Gulf'
p1001
I1
sS'lips'
p1002
I1
sS'economic'
p1003
I1
sS'Messenger'
p1004
I1
sS'newsletter'
p1005
I2
sS'ourselves'
p1006
I1
sS'NewsmailchimpIde95cdc16a9newsletterIDe95cdc16a9subImageicdncnncomcnnelementimg40subscriptionreliablesourcespngbuttonTextTake'
p1007
I1
sS'delivered'
p1008
I2
sS'c85600'
p1009
I1
sS'jewelry'
p1010
I1
sS'sneakers'
p1011
I1
sS'prod'
p1012
I1
sS'trueerror'
p1013
I1
sS'run'
p1014
I2
sS'nightu003ca'
p1015
I1
sS'UpdescriptionOnce'
p1016
I1
sS'windowdocumentdomain'
p1017
I1
sS'continuing'
p1018
I1
sS'step'
p1019
I1
sS'tidal'
p1020
I2
sS'abroad'
p1021
I3
sS'handled'
p1022
I1
sS'roundup'
p1023
I1
sS'cautious'
p1024
I1
sS'falsewarn'
p1025
I1
sS'classics'
p1026
I1
sS'conclusionlayouturi20161122designpostalmuseumundergroundrailwayindexhtmlheadlineLondons'
p1027
I1
sS'EditionmailchimpIdtextbreakingnewsnewsletterIDtextbreakingnewsisGigyatruesubImageicdncnncomcnnelementimg40subscriptionbreakingnewsgraphicjpgbuttonTextClick'
p1028
I1
sS'affiliatescripthttpicdncnncomcnnewidgettripadvisoraffiliatelinkercnntravelaffiliatelinkerminjspartnerHotelsapiKeyE6E67BB01FD2467688ED25D5F5BC095AapiBaseUrlhttpapitripadvisorcomapipartner20locationservicePathservicestravelpartnerHotelswidgetapiKeyE6E67BB01FD2467688ED25D5F5BC095AcsshttpicdncnncomcnnewidgettripadvisorserviceinfocsscnntravelmapsmincssscripthttpicdncnncomcnnewidgettripadvisorserviceinfocnntravelmapsbundleminjsmapapiMapboxapiKeypkeyJ1IjoiY25uZGlnaXRhbCIsImEiOiJhMmI0NTFkNWMzNmMyODU4NTQyMjQzNWFkM2I5OGFkMCJ9S01hv9vVgIbHvy1QuAsoyQoptionsKeymapboxaccesstokenCNNUserMessageConfig'
p1029
I1
sS'layouturi20161122travelbestthingstodointallinnestoniaindexhtmlheadlineWhy'
p1030
I1
sS'pD1yc5zQgjmqr5windowsfasyncconfig'
p1031
I1
sS'seasons'
p1032
I1
sS'Racing'
p1033
I1
sS'Islamophobiathumbnailhttpi2cdncnncomcnnnextdamassets161114152205marinelepenfranceflagsmall11jpgdurationdescriptionu003ca'
p1034
I1
sS'sectionentertainmentenableFooterfalseenableIncludetruehealthenableFooterfalseenableIncludetruehomepageenableFooterfalseenableIncludefalseintlhomepageenableFooterfalseenableIncludefalselivingenableFooterfalseenableIncludetruepoliticsenableFooterfalseenableIncludetruetechenableFooterfalseenableIncludetruetravelenableFooterfalseenableIncludetrueusenableFooterfalseenableIncludetrueworldenableFooterfalseenableIncludetrueCNNMarketsConfig'
p1035
I1
sS'Every'
p1036
I1
sS'sfstartptDatenow'
p1037
I1
sS'hoped'
p1038
I1
sS'Malaysias'
p1039
I1
sS'stepnameFive'
p1040
I1
sS'Africa'
p1041
I1
sS'jQuerydocumentonZoneRenderedsetAdSlotsfunction'
p1042
I1
sS'Perspective'
p1043
I1
sS'doc'
p1044
I5
sS'slotCount'
p1045
I5
sS'called'
p1046
I1
sS'hostsearchwwwwuseditionnextcnncom'
p1047
I1
sS'Cooperation'
p1048
I1
sS'cooperationthumbnailhttpi2cdncnncomcnnnextdamassets16112209271501chinausmilitarydrillsmall11jpgdurationdescriptionIf'
p1049
I1
sS'International'
p1050
I1
sS'CNNPageParamsadkeyCNNgetAdkey'
p1051
I1
sS'entertainmentzoneadIdadrectbtf02outBrainIdAR38healthzoneadIdadrectatf01outBrainIdSF8livingzoneadIdadrectatf01outBrainIdSF9politicszoneadIdadrectatf01outBrainIdSF6techzoneadIdadrectatf01outBrainIdSF7travelzoneadIdadrectatf01outBrainIdSF10uszoneadIdadrectatf01outBrainIdSF4worldzoneadIdadrectatf01outBrainIdSF5CNNPushAlertsConfig'
p1052
I1
sS'intrepid'
p1053
I1
sS'TV'
p1054
I9
sS'falsebeaconTimeout'
p1055
I1
sS'mcountmeasures'
p1056
I1
sS'users'
p1057
I1
sS'politicslayouturi20161026americasandysteinorphanedstarfishindexhtmlheadlineSaving'
p1058
I1
sS'helping'
p1059
I2
sS'falsegalleryAdClicks'
p1060
I1
sS'ago'
p1061
I1
sS'Rosberg'
p1062
I1
sS'walked'
p1063
I1
sS'2007'
p1064
I1
sS'fresh'
p1065
I3
sS'navigatorappVersionindexOfWindows'
p1066
I1
sS'issued'
p1067
I1
sS'Department'
p1068
I1
sS'particularly'
p1069
I1
sS'1toLowerCasewinedition'
p1070
I1
sS'oblivion\xe2\x80\x94becomes'
p1071
I1
sS'Means'
p1072
I1
sS'helps'
p1073
I1
sS'Not'
p1074
I1
sS'include'
p1075
I2
sS'Newsourcefunction'
p1076
I1
sS'falseenableShareButtons'
p1077
I1
sS'falseenableOutbrainOneTapToPlay'
p1078
I1
sS'facebook'
p1079
I1
sS'altrightthumbnailhttpi2cdncnncomcnnnextdamassets161122070449donaldtrumpnovember10small11jpgdurationdescriptionPresidentelect'
p1080
I1
sS'frameborder0u003ciframenetworkcnnCNNWatchLiveCountries'
p1081
I1
sS'fewer'
p1082
I1
sS'try'
p1083
I7
sS'race'
p1084
I3
sS'alivelayouticonTypevideourivideosus20161021expnascartotalcoverageorigcnnheadlineNASCAR'
p1085
I1
sS'setRefDomwin'
p1086
I1
sS'Select'
p1087
I1
sS'streetsthumbnailhttpi2cdncnncomcnnnextdamassets161025101703colombiasenderosdepaz011small11jpgdurationdescriptionAndy'
p1088
I1
sS'airu003ca'
p1089
I1
sS'State'
p1090
I1
sS'video'
p1091
I1
sS'measureslength'
p1092
I1
sS'depression'
p1093
I1
sS'SecurityInnovation'
p1094
I2
sS'2016thumbnailhttpi2cdncnncomcnnnextdamassets161103145338mirabaudtimthomassmall11jpgdurationdescriptionTwenty'
p1095
I1
sS'giving'
p1096
I1
sS'access'
p1097
I2
sS'refreshsubscriptionErrorTextYour'
p1098
I2
sS'exercise'
p1099
I2
sS'body'
p1100
I2
sS'doclocationprotocol'
p1101
I2
sS'ProvidermessageTextKeep'
p1102
I2
sS'delivering'
p1103
I1
sS'newsFeature'
p1104
I2
sS'httpzcdncnncomadscnnicnnihomepagejs'
p1105
I1
sS'focused'
p1106
I1
sS'windowperformancemarkheadEnd'
p1107
I1
sS'CNNORC'
p1108
I1
sS'everexpanding'
p1109
I1
sS'survivor'
p1110
I1
sS'trueCNNMailchimp'
p1111
I1
sS'beaconTimeout'
p1112
I1
sS'suggests'
p1113
I1
sS'resulting'
p1114
I1
sS'defeat'
p1115
I1
sS'maker'
p1116
I1
sS'winClickTaleCreateDOMElement'
p1117
I2
sS'win'
p1118
I3
sS'EastOpinionUS'
p1119
I2
sS'Nico'
p1120
I1
sS'Brazilian'
p1121
I1
sS'festivals'
p1122
I1
sS'layouturi20161122politicsdonaldtrumppresidencypolltransitionindexhtmlheadlinePoll'
p1123
I1
sS'TravellerDestinationsFeaturesFoodDrinkHotelsPartner'
p1124
I2
sS'NowdescriptionStay'
p1125
I1
sS'occurred'
p1126
I2
sS'women'
p1127
I1
sS'balls'
p1128
I1
sS'Video'
p1129
I2
sS'didnt'
p1130
I2
sS'trueenableOutbrain'
p1131
I1
sS'hip'
p1132
I1
sS'process'
p1133
I1
sS'lock'
p1134
I1
sS'sought'
p1135
I2
sS'rape'
p1136
I2
sS'weaken'
p1137
I2
sS'animal'
p1138
I1
sS'cladding'
p1139
I1
sS'Friends'
p1140
I1
sS'stock'
p1141
I1
sS'BOOMRcnntimeout'
p1142
I2
sS'reportlayouticonTypevideourivideosworld20161121princeharrytripsabroadhighlightssdgorigcnnheadlinePrince'
p1143
I1
sS'farm'
p1144
I1
sS'fastdom'
p1145
I2
sS'highs'
p1146
I1
sS'wristwatch'
p1147
I1
sS'British'
p1148
I2
sS'denounce'
p1149
I1
sS'thumbnailhttpi2cdncnncomcnnnextdamassets161122122018japanquaketsunamiwaves2small11jpgdurationdescriptionThe'
p1150
I1
sS'twins'
p1151
I1
sS'u003ca'
p1152
I8
sS'One'
p1153
I2
sS'scoop'
p1154
I1
sS'chief'
p1155
I1
sS'Weather'
p1156
I2
sS'NewsHomeRegionsUS'
p1157
I1
sS'StorysubTitleFeed'
p1158
I1
sS'reeling'
p1159
I1
sS'TeamBusinessMarketsTechLuxuryEntertainmentCelebrity'
p1160
I2
sS'CNNcontentModel'
p1161
I1
sS'presidentthumbnailhttpi2cdncnncomcnnnextdamassets161118195426trump0916small11jpgdurationdescriptionTheres'
p1162
I1
sS'perfect'
p1163
I2
sS'trueenableGigyaLogin'
p1164
I1
sS'2015'
p1165
I1
sS'2017'
p1166
I1
sS'holiday'
p1167
I1
sS'2011'
p1168
I1
sS'crash'
p1169
I1
sS'mention'
p1170
I1
sS'autoScrollEnabledfalseautoScrollInterval8000pauseAutoscrollWhenInvisibletruepauseVideoWhenInvisibletrueresponsiveContainerConstraintsmobile480tablet800desktop2500scrollPausesJumbotronInterval5000CNNLazyLoad'
p1171
I1
sS'hands'
p1172
I1
sS'day'
p1173
I4
sS'presidential'
p1174
I1
sS'ProjectImpact'
p1175
I2
sS'Lionel'
p1176
I1
sS'nationals'
p1177
I1
sS'falseenableOmniture'
p1178
I1
sS'inbox'
p1179
I1
sS'Neymar'
p1180
I2
sS'From'
p1181
I1
sS'globe'
p1182
I1
sS'related'
p1183
I1
sS'trueenableKrux'
p1184
I1
sS'victimslayouticonTypevideouri20160417asiavietnamesegirlschildbrideschinaindexhtmlheadlineGirls'
p1185
I1
sS'entertainment'
p1186
I1
sS'integrates'
p1187
I1
sS'China'
p1188
I3
sS'Farage'
p1189
I1
sS'announced'
p1190
I1
sS'itnameBefore'
p1191
I1
sS'NewsletterssuccessIconicdncnncomcnnelementimg40subscriptioncheckmarkpngalsoLikeYou'
p1192
I1
sS'This'
p1193
I2
sS'capTopics'
p1194
I1
sS'dopingthumbnailhttpi2cdncnncomcnnnextdamassets161121120414wadadopingsmall11jpgdurationdescriptionRussia'
p1195
I1
sS'ResultsNationWorldOur'
p1196
I2
sS'WorldwideMore\xe2\x80\xa6WeatherCNN'
p1197
I2
sS'jQuerydocumentonZonesAndDomReadyadSlotTimeout'
p1198
I1
sS'exSoviet'
p1199
I1
sS'Boris'
p1200
I1
sS'start'
p1201
I2
sS'data'
p1202
I1
sS'fdmeasurefunction'
p1203
I1
sS'Coast'
p1204
I1
sS'hrefprivacyrevised'
p1205
I1
sS'Association'
p1206
I1
sS'showsTV'
p1207
I4
sS'Africa2'
p1208
I2
sS'var'
p1209
I13
sS'Ladies'
p1210
I1
sS'futurethumbnailhttpi2cdncnncomcnnnextdamassets161107162920seeyourselfxleegriggssmall11jpgdurationdescriptionDo'
p1211
I1
sS'bed'
p1212
I1
sS'visited'
p1213
I1
sS'classusermsgagree'
p1214
I1
sS'thwarted'
p1215
I1
sS'Richard'
p1216
I1
sS'crisislayouturi20161115healthweightlossballoonindexhtmlheadlineWeightloss'
p1217
I1
sS'partnership'
p1218
I2
sS'teenagers'
p1219
I2
sS'border'
p1220
I1
sS'BOOMRcnntimer'
p1221
I2
sS'battles'
p1222
I1
sS'wineditionadTargetsrefdomif'
p1223
I1
sS'FridayCNNOptimizelyConfig'
p1224
I1
sS'trueenableZoneOutbrain'
p1225
I1
sS'expires'
p1226
I2
sS'eight'
p1227
I1
sS'Mercedes'
p1228
I1
sS'Becker'
p1229
I2
sS'CNNeventTimers'
p1230
I1
sS'Policyu003ca'
p1231
I1
sS'ProvidertroubleShootingTextIf'
p1232
I2
sS'BOOMRaddVar'
p1233
I1
sS'Some'
p1234
I1
sS'uri'
p1235
I1
sS'High'
p1236
I1
sS'Donald'
p1237
I7
sS'billthumbnailhttpi2cdncnncomcnnnextdamassets161122125759turkeyrapebillsmall11jpgdurationdescriptionTurkey'
p1238
I1
sS'scptdocument'
p1239
I1
sS'Paris'
p1240
I1
sS'degreesAll'
p1241
I2
sS'itopicsif'
p1242
I1
sS'bring'
p1243
I1
sS'fwNetworkId'
p1244
I1
sS'asylum'
p1245
I1
sS'supporter'
p1246
I1
sS'staff'
p1247
I1
sS'altright'
p1248
I2
sS'thousands'
p1249
I1
sS'hope'
p1250
I1
sS'Puskas'
p1251
I1
sS'specialstitleTextYour'
p1252
I2
sS'means'
p1253
I1
sS'beat'
p1254
I1
sS'inboxnameNightCapsubTitleYou\xe2\x80\x99ll'
p1255
I1
sS'aboutnameGreat'
p1256
I1
sS'Stories'
p1257
I1
sS'morningmailchimpId1d49e2a168newsletterID1d49e2a168subImagehttpicdncnncomcnnelementimg40subscriptionbeforethebelljpgbuttonTextAdd'
p1258
I1
sS'course'
p1259
I1
sS'winperformancemarkslotElementIdslotCountif'
p1260
I1
sS'married'
p1261
I1
sS'cycled'
p1262
I1
sS'superstars'
p1263
I1
sS'view'
p1264
I1
sS'jQueryfnonZonesAndDomReady'
p1265
I2
sS'quake'
p1266
I1
sS'national'
p1267
I1
sS'trueenableOneTapToPlay'
p1268
I1
sS'officials'
p1269
I1
sS'packed'
p1270
I1
sS'cancerthumbnailhttpi2cdncnncomcnnnextdamassets161121171030croppedyoungcancergirlphotosocialthumbsmall11jpgdurationdescriptionA'
p1271
I1
sS'commentslayouticonTypevideouri20161122opinionstrumppersiangulfstatesopinionindexhtmlheadlineTrump'
p1272
I1
sS'closed'
p1273
I1
sS'Republican'
p1274
I1
sS'tsunamu003cai'
p1275
I1
sS'email'
p1276
I3
sS'job'
p1277
I1
sS'key'
p1278
I2
sS'BOOMRpluginsGPT'
p1279
I1
sS'monitor'
p1280
I1
sS'trueenableBreakingNews'
p1281
I1
sS'taking'
p1282
I1
sS'Woods'
p1283
I2
sS'wineditionadTargetscapTopics0'
p1284
I1
sS'withdraws'
p1285
I1
sS'wall'
p1286
I1
sS'invasive'
p1287
I1
sS'Los'
p1288
I1
sS'twoweek'
p1289
I1
sS'layouticonTypevideourivideostv20161118syrianexpatorchestraingermanyorigcnnheadlineSyrian'
p1290
I1
sS'ProfiteddescriptionStart'
p1291
I1
sS'responds'
p1292
I1
sS'Phone'
p1293
I1
sS'1800CNNnewsLetterConfig'
p1294
I1
sS'seasoned'
p1295
I1
sS'httpdatacnncom1mspimmdatjQuerygetfetchUrl'
p1296
I1
sS'mcount'
p1297
I2
sS'Gen'
p1298
I1
sS'KnowingmailchimpIda4165679e3newsletterIDa4165679e3subImageicdncnncomcnnelementimg40subscriptionnightcapjpgbuttonTextPolitics'
p1299
I1
sS'usHelpTranscriptsLicense'
p1300
I1
sS'initClickTalewin'
p1301
I1
sS'tense'
p1302
I1
sS'infestation'
p1303
I1
sS'EditionSet'
p1304
I1
sS'imperativelayouturi20161113healthmarijuanaweakensheartindexhtmlheadlineDoes'
p1305
I1
sS'layouturi20161114travelmoroccoatlasmountainskitrekindexhtmlheadlineSkiing'
p1306
I1
sS'homes'
p1307
I1
sS'2016'
p1308
I2
sS'trueenableVideoEndSlate'
p1309
I1
sS'plain'
p1310
I1
sS'Blowenlayouturi20161108travelgreaterlondonlesserknownattractionsindexhtmlheadlineLondoners'
p1311
I1
sS'CNNUtilsexistswineditionadTargetscapTopics0'
p1312
I1
sS'offending'
p1313
I1
sS'site'
p1314
I1
sS'helped'
p1315
I1
sS'loadAllZonesLazy'
p1316
I1
sS'capture'
p1317
I1
sS'falsetimeStamp'
p1318
I1
sS'balloon'
p1319
I1
sS'administration'
p1320
I1
sS'slammed'
p1321
I1
sS'c105760'
p1322
I1
sS'CNNPageParamsadkey'
p1323
I1
sS'underground'
p1324
I1
sS'difficult'
p1325
I2
sS'injured'
p1326
I1
sS'ball'
p1327
I1
sS'AntiDoping'
p1328
I1
sS'differentthumbnailhttpi2cdncnncomcnnnextdamassets16112113405012vanalinnmagnusheinmetsbig27small11jpgdurationdescriptionlayouturi20161121africachinesefundedrailwaysinafricaindexhtmlheadlineTHIS'
p1329
I1
sS'CNNgou003cbrSign'
p1330
I2
sS'sisters'
p1331
I1
sS'desktopsectioninternationalcontextsdefaultadSectionOverrideKeysconstarticlecarouselinpageeditioncnncommiscdefaultinpageconstarticlecarouselpagetopeditioncnncommiscdefaultt1constarticleinpageeditioncnncommiscdefaultinpageconstarticlepagetopeditioncnncommiscdefaultt1constvideoleafeditioncnncommiscdefaultt1adsectioneditioncnncommiscdefaultt1analyticsjsmdNewAPImetadataautostartfalsecvpContextexpansioncvpNetworkcnntestcvpProfileexpansionheight100iframeConfigiframeHosthttpeditioncnncomiframeHtmlelementwidgetvideovideoapihtmllatestiframeclienthtmlrelativeUrlHostslocalhostcnncom3000localhostnextcnncomlocalhostnextcnncom8080editiondevnextcnncomeditionenablenextcnncomeditionpoliticsnextcnncomeditionsweetnextcnncomeditionterranextcnncomeditionvideonextcnncomeditionetrainnextcnncomeditionstagenextcnncomeditionrefnextcnncomtypeembeddedwidth100africaadSectionOverrideKeysconstarticlecarouselinpageeditioncnncomafricainpageconstarticlecarouselpagetopeditioncnncomafricat1constarticleinpageeditioncnncomafricainpageconstarticlepagetopeditioncnncomafricat1constvideoleafeditioncnncomafricat1adsectioneditioncnncomafricamiscautostartfalseamericasadSectionOverrideKeysconstarticlecarouselinpageeditioncnncomlatinamericamaininpageconstarticlecarouselpagetopeditioncnncomlatinamericamaint1constarticleinpageeditioncnncomlatinamericamaininpageconstarticlepagetopeditioncnncomlatinamericamaint1constvideoleafeditioncnncomlatinamericamaint1adsectioneditioncnncomlatinamericamiscautostartfalsearchitectureadSectionOverrideKeysconstarticlecarouselinpageeditioncnncomstylearchitectureinpageconstarticlecarouselpagetopeditioncnncomstylearchitecturet1constarticleinpageeditioncnncomstylearchitectureinpageconstarticlepagetopeditioncnncomstylearchitecturet1constvideoleafeditioncnncomstylearchitecturet1adsectioneditioncnncomstylearchitecturemiscartsadSectionOverrideKeysconstarticlecarouselinpageeditioncnncomstyleartsinpageconstarticlecarouselpagetopeditioncnncomstyleartst1constarticleinpageeditioncnncomstyleartsinpageconstarticlepagetopeditioncnncomstyleartst1constvideoleafeditioncnncomstyleartst1adsectioneditioncnncomstyleartsmiscasiaadSectionOverrideKeysconstarticlecarouselinpageeditioncnncomasiamaininpageconstarticlecarouselpagetopeditioncnncomasiat1constarticleinpageeditioncnncomasiamaininpageconstarticlepagetopeditioncnncomasiat1constvideoleafeditioncnncomasiat1adsectioneditioncnncomasiamiscautostartfalseautosadSectionOverrideKeysconstarticlecarouselinpageeditioncnncomstyleautosinpageconstarticlecarouselpagetopeditioncnncomstyleautost1constarticleinpageeditioncnncomstyleautosinpageconstarticlepagetopeditioncnncomstyleautost1constvideoleafeditioncnncomstyleautost1adsectioneditioncnncomstyleautosmiscaviationadSectionOverrideKeysconstarticlecarouselinpageeditioncnncomtravelaviationinpageconstarticlecarouselpagetopeditioncnncomtravelaviationt1constarticleinpageeditioncnncomtravelaviationinpageconstarticlepagetopeditioncnncomtravelaviationt1constvideoleafeditioncnncomtravelaviationt1adsectioneditioncnncomtravelaviationmiscbestoftvadSectionOverrideKeysconstarticlecarouselinpageeditioncnncombestoftvinpageconstarticlecarouselpagetopeditioncnncombestoftvt1constarticleinpageeditioncnncombestoftvinpageconstarticlepagetopeditioncnncombestoftvt1constvideoleafeditioncnncombestoftvt1adsectioneditioncnncombestoftvmiscbusinessadSectionOverrideKeysconstarticlecarouselinpageeditioncnncomworldbusinessinpageconstarticlecarouselpagetopeditioncnncomworldbusinesst1constarticleinpageeditioncnncomworldbusinessinpageconstarticlepagetopeditioncnncomworldbusinesst1constvideoleafeditioncnncomworldbusinesst1adsectioneditioncnncomworldbusinessmisccnnmoneyadSectionOverrideKeysconstarticlecarouselinpageeditioncnncomcnnmoneyinpageconstarticlecarouselpagetopeditioncnncomcnnmoneyt1constarticleinpageeditioncnncomcnnmoneyinpageconstarticlepagetopeditioncnncomcnnmoneyt1constvideoleafeditioncnncomcnnmoneyt1adsectioneditioncnncomcnnmoneymisccrimeadSectionOverrideKeysconstarticlecarouselinpageeditioncnncomcrimeinpageconstarticlecarouselpagetopeditioncnncomcrimet1constarticleinpageeditioncnncomcrimeinpageconstarticlepagetopeditioncnncomcrimet1constvideoleafeditioncnncomcrimet1adsectioneditioncnncomcrimemiscdesignadSectionOverrideKeysconstarticlecarouselinpageeditioncnncomstyledesigninpageconstarticlecarouselpagetopeditioncnncomstyledesignt1constarticleinpageeditioncnncomstyledesigninpageconstarticlepagetopeditioncnncomstyledesignt1constvideoleafeditioncnncomstyledesignt1adsectioneditioncnncomstyledesignmiscentertainmentadSectionOverrideKeysconstarticlecarouselinpageeditioncnncomentertainmentinpageconstarticlecarouselpagetopeditioncnncomentertainmentt1constarticleinpageeditioncnncomentertainmentinpageconstarticlepagetopeditioncnncomentertainmentt1constvideoleafeditioncnncomentertainmentt1adsectioneditioncnncomentertainmentsectionmisceuropeadSectionOverrideKeysconstarticlecarouselinpageeditioncnncomeuropemaininpageconstarticlecarouselpagetopeditioncnncomeuropemaint1constarticleinpageeditioncnncomeuropemaininpageconstarticlepagetopeditioncnncomeuropemaint1constvideoleafeditioncnncomeuropemaint1adsectioneditioncnncomeuropemiscfashionadSectionOverrideKeysconstarticlecarouselinpageeditioncnncomstylefashioninpageconstarticlecarouselpagetopeditioncnncomstylefashiont1constarticleinpageeditioncnncomstylefashioninpageconstarticlepagetopeditioncnncomstylefashiont1constvideoleafeditioncnncomstylefashiont1adsectioneditioncnncomstylefashionmiscfoodanddrinkadSectionOverrideKeysconstarticlecarouselinpageeditioncnncomtravelfoodanddrinkinpageconstarticlecarouselpagetopeditioncnncomtravelfoodanddrinkt1constarticleinpageeditioncnncomtravelfoodanddrinkinpageconstarticlepagetopeditioncnncomtravelfoodanddrinkt1constvideoleafeditioncnncomtravelfoodanddrinkt1adsectioneditioncnncomtravelfoodanddrinkmiscfootballadSectionOverrideKeysconstarticlecarouselinpageeditioncnncomworldsportfootballinpageconstarticlecarouselpagetopeditioncnncomworldsportfootballt1constarticleinpageeditioncnncomworldsportfootballinpageconstarticlepagetopeditioncnncomworldsportfootballt1constvideoleafeditioncnncomworldsportfootballt1adsectioneditioncnncomworldsportfootballmiscgeneraladsectioneditioncnncomvideoscinemamodegeneraliframeadsectioneditioncnncomvideoscinemamodeanalyticsjsmdNewAPItypeiframegeneralnoadsautostartfalsecvpAdPolicyContextadFreegolfadSectionOverrideKeysconstarticlecarouselinpageeditioncnncomworldsportgolfinpageconstarticlecarouselpagetopeditioncnncomworldsportgolft1constarticleinpageeditioncnncomworldsportgolfinpageconstarticlepagetopeditioncnncomworldsportgolft1constvideoleafeditioncnncomworldsportgolft1adsectioneditioncnncomworldsportworldsportgolfmischealthadSectionOverrideKeysconstarticlecarouselinpageeditioncnncomhealthinpageconstarticlecarouselpagetopeditioncnncomhealtht1constarticleinpageeditioncnncomhealthinpageconstarticlepagetopeditioncnncomhealtht1constvideoleafeditioncnncomhealtht1adsectioneditioncnncomhealthsectionmischotelsadSectionOverrideKeysconstarticlecarouselinpageeditioncnncomtravelhotelsinpageconstarticlecarouselpagetopeditioncnncomtravelhotelst1constarticleinpageeditioncnncomtravelhotelsinpageconstarticlepagetopeditioncnncomtravelhotelst1constvideoleafeditioncnncomtravelhotelst1adsectioneditioncnncomtravelhotelsmiscjusticeadSectionOverrideKeysconstarticlecarouselinpageeditioncnncomjusticeinpageconstarticlecarouselpagetopeditioncnncomjusticet1constarticleinpageeditioncnncomjusticeinpageconstarticlepagetopeditioncnncomjusticet1constvideoleafeditioncnncomjusticet1adsectioneditioncnncomjusticemisclivingadSectionOverrideKeysconstarticlecarouselinpageeditioncnncomlivinginpageconstarticlecarouselpagetopeditioncnncomlivingt1constarticleinpageeditioncnncomlivinginpageconstarticlepagetopeditioncnncomlivingt1constvideoleafeditioncnncomlivingt1adsectioneditioncnncomlivingmiscluxuryadSectionOverrideKeysconstarticlecarouselinpageeditioncnncomstyleluxuryinpageconstarticlecarouselpagetopeditioncnncomstyleluxuryt1constarticleinpageeditioncnncomstyleluxuryinpageconstarticlepagetopeditioncnncomstyleluxuryt1constvideoleafeditioncnncomstyleluxuryt1adsectioneditioncnncomstyleluxurymiscmiddleeastadSectionOverrideKeysconstarticlecarouselinpageeditioncnncommiddleeastmaininpageconstarticlecarouselpagetopeditioncnncommiddleeastmaint1constarticleinpageeditioncnncommiddleeastmaininpageconstarticlepagetopeditioncnncommiddleeastmaint1constvideoleafeditioncnncommiddleeastmaint1adsectioneditioncnncommiddleeastmiscmotorsportadSectionOverrideKeysconstarticlecarouselinpageeditioncnncomworldsportmotorsportinpageconstarticlecarouselpagetopeditioncnncomworldsportmotorsportt1constarticleinpageeditioncnncomworldsportmotorsportinpageconstarticlepagetopeditioncnncomworldsportmotorsportt1constvideoleafeditioncnncomworldsportmotorsportt1adsectioneditioncnncomworldsportmotorsportmiscopinionadSectionOverrideKeysconstarticlecarouselinpageeditioncnncomopinioninpageconstarticlecarouselpagetopeditioncnncomopiniont1constarticleinpageeditioncnncomopinioninpageconstarticlepagetopeditioncnncomopiniont1constvideoleafeditioncnncomopiniont1adsectioneditioncnncomopinionsmiscopinionsadSectionOverrideKeysconstarticlecarouselinpageeditioncnncomopinioninpageconstarticlecarouselpagetopeditioncnncomopiniont1constarticleinpageeditioncnncomopinioninpageconstarticlepagetopeditioncnncomopiniont1constvideoleafeditioncnncomopiniont1adsectioneditioncnncomopinionsmiscpoliticsadSectionOverrideKeysconstarticlecarouselinpageeditioncnncompoliticsinpageconstarticlecarouselpagetopeditioncnncompoliticst1constarticleinpageeditioncnncompoliticsinpageconstarticlepagetopeditioncnncompoliticst1constvideoleafeditioncnncompoliticst1adsectioneditioncnncompoliticssectionmiscsailingadSectionOverrideKeysconstarticlecarouselinpageeditioncnncomwhatsonmainsailinpageconstarticlecarouselpagetopeditioncnncomwhatsonmainsailt1constarticleinpageeditioncnncomwhatsonmainsailinpageconstarticlepagetopeditioncnncomwhatsonmainsailt1constvideoleafeditioncnncomwhatsonmainsailt1adsectioneditioncnncomwhatsonmainsailmiscautostarttrueshowbizadSectionOverrideKeysconstarticlecarouselinpageeditioncnncomentertainmentinpageconstarticlecarouselpagetopeditioncnncomentertainmentt1constarticleinpageeditioncnncomentertainmentinpageconstarticlepagetopeditioncnncomentertainmentt1constvideoleafeditioncnncomentertainmentt1adsectioneditioncnncomentertainmentmiscskiingadSectionOverrideKeysconstarticlecarouselinpageeditioncnncomspecialreportsalpineedgeinpageconstarticlecarouselpagetopeditioncnncomspecialreportsalpineedget1constarticleinpageeditioncnncomspecialreportsalpineedgeinpageconstarticlepagetopeditioncnncomspecialreportsalpineedget1constvideoleafeditioncnncomspecialreportsalpineedget1adsectioneditioncnncomspecialreportsalpineedgemiscautostarttruespanishadSectionOverrideKeysconstarticlecarouselinpagecnnespanolcnncomspanishdefaultinpageconstarticlecarouselpagetopcnnespanolcnncomspanishdefaultt1constarticleinpagecnnespanolcnncomspanishdefaultinpageconstarticlepagetopcnnespanolcnncomspanishdefaultt1constvideoleafcnnespanolcnncomspanishdefaultt1adsectioncnnespanolcnncomspanishdefaultmiscautostarttruespanishshowsadSectionOverrideKeysconstarticlecarouselinpagecnnespanolcnncomspanishshowsinpageconstarticlecarouselpagetopcnnespanolcnncomspanishshowst1constarticleinpagecnnespanolcnncomspanishshowsinpageconstarticlepagetopcnnespanolcnncomspanishshowst1constvideoleafcnnespanolcnncomspanishshowst1adsectioncnnespanolcnncomspanishshowsmiscautostarttruespanishspecialsadSectionOverrideKeysconstarticlecarouselinpagecnnespanolcnncomspanishspecialsinpageconstarticlecarouselpagetopcnnespanolcnncomspanishspecialst1constarticleinpagecnnespanolcnncomspanishspecialsinpageconstarticlepagetopcnnespanolcnncomspanishspecialst1constvideoleafcnnespanolcnncomspanishspecialst1adsectioncnnespanolcnncomspanishspecialsmiscautostarttruesportadSectionOverrideKeysconstarticlecarouselinpageeditioncnncomusworldsportinpageconstarticlecarouselpagetopeditioncnncomusworldsportt1constarticleinpageeditioncnncomusworldsportinpageconstarticlepagetopeditioncnncomusworldsportt1constvideoleafeditioncnncomusworldsportt1adsectioneditioncnncomworldsportmiscstyleadSectionOverrideKeysconstarticlecarouselinpageeditioncnncomstylet1constarticlecarouselpagetopeditioncnncomstyleinpageconstarticleinpageeditioncnncomstyleinpageconstarticlepagetopeditioncnncomstylet1constvideoleafeditioncnncomstylet1adsectioneditioncnncomstylemisctechadSectionOverrideKeysconstarticlecarouselinpageeditioncnncomtechinpageconstarticlecarouselpagetopeditioncnncomtecht1constarticleinpageeditioncnncomtechinpageconstarticlepagetopeditioncnncomtecht1constvideoleafeditioncnncomtecht1adsectioneditioncnncomtechmisctechnologyadSectionOverrideKeysconstarticlecarouselinpageeditioncnncomtechnologyinpageconstarticlecarouselpagetopeditioncnncomtechnologyt1constarticleinpageeditioncnncomtechnologyinpageconstarticlepagetopeditioncnncomtechnologyt1constvideoleafeditioncnncomtechnologyt1adsectioneditioncnncomtechnologymiscautostartfalsetennisadSectionOverrideKeysconstarticlecarouselinpageeditioncnncomworldsporttennisinpageconstarticlecarouselpagetopeditioncnncomworldsporttennist1constarticleinpageeditioncnncomworldsporttennisinpageconstarticlepagetopeditioncnncomworldsporttennist1constvideoleafeditioncnncomworldsporttennist1adsectioneditioncnncomworldsporttennismisctopvideosadSectionOverrideKeysconstarticlecarouselinpageeditioncnncomtopvideosinpageconstarticlecarouselpagetopeditioncnncomtopvideost1constarticleinpageeditioncnncomtopvideosinpageconstarticlepagetopeditioncnncomtopvideost1constvideoleafeditioncnncomtopvideost1adsectioneditioncnncomtopvideosmisctraveladSectionOverrideKeysconstarticlecarouselinpageeditioncnncomtravelinpageconstarticlecarouselpagetopeditioncnncomtravelt1constarticleinpageeditioncnncomtravelinpageconstarticlepagetopeditioncnncomtravelt1constvideoleafeditioncnncomtravelt1adsectioneditioncnncomtravelmisctveprevadsectioncnncommainhomepagerightrailmutedallowAutoPausefalseanalyticsnoneautostartfalsecvpContexttveprevcvpProfileexpansionheight169width300usadSectionOverrideKeysconstarticlecarouselinpageeditioncnncomusinpageconstarticlecarouselpagetopeditioncnncomust1constarticleinpageeditioncnncomusinpageconstarticlepagetopeditioncnncomust1constvideoleafeditioncnncomust1adsectioneditioncnncomusmiscvideosadSectionOverrideKeysconstarticlecarouselinpageeditioncnncommiscdefaultinpageconstarticlecarouselpagetopeditioncnncommiscdefaultt1constarticleinpageeditioncnncommiscdefaultinpageconstarticlepagetopeditioncnncommiscdefaultt1constvideoleafeditioncnncommiscdefaultt1adsectioneditioncnncommainvideosectionwatchcnnadsectioncnncomvideoslivetvanalyticsjsmdTVEAPIcvpContextwatchcnncvpProfileexpansionweatheradSectionOverrideKeysconstarticlecarouselinpageeditioncnncomweatherinpageconstarticlecarouselpagetopeditioncnncomweathert1constarticleinpageeditioncnncomweatherinpageconstarticlepagetopeditioncnncomweathert1constvideoleafeditioncnncomweathert1adsectioneditioncnncomweathermiscautostarttrueworldadSectionOverrideKeysconstarticlecarouselinpageeditioncnncomworldinpageconstarticlecarouselpagetopeditioncnncomworldt1constarticleinpageeditioncnncomworldinpageconstarticlepagetopeditioncnncomworldt1constvideoleafeditioncnncomworldt1adsectioneditioncnncomworldmiscworldsportadSectionOverrideKeysconstarticlecarouselinpageeditioncnncomworldsportinpageconstarticlecarouselpagetopeditioncnncomworldsportt1constarticleinpageeditioncnncomworldsportinpageconstarticlepagetopeditioncnncomworldsportt1constvideoleafeditioncnncomworldsportt1adsectioneditioncnncomworldsportmiscmobilesectioninternationalcontextsafricaadsectioneditioncnncommobilemobilewebafricacvpContextexpansioncvpProfileexpansionamericasadsectioneditioncnncommobilemobilewebamericascvpContextexpansioncvpProfileexpansionarchitectureadsectioneditioncnncommobilemobilewebstylearchitectureartsadsectioneditioncnncommobilemobilewebstyleartsasiaadsectioneditioncnncommobilemobilewebasiacvpContextexpansioncvpProfileexpansionautosadsectioneditioncnncommobilemobilewebstyleautosaviationadsectioneditioncnncommobilemobilewebtravelaviationcvpContextexpansioncvpProfileexpansionbestoftvadsectioneditioncnncommobilemobilewebmaincvpContextexpansioncvpProfileexpansionbusinessadsectioneditioncnncommobilemobilewebworldbusinesscvpContextexpansioncvpProfileexpansioncnnmoneyadsectioncommobilemobilewebmaincvpContextexpansioncvpProfileexpansioncrimeadsectioncommobilemobilewebmaincvpContextexpansioncvpProfileexpansiondesignadsectioneditioncnncommobilemobilewebstyledesignentertainmentadsectioneditioncnncommobilemobilewebentertainmentcvpContextexpansioncvpProfileexpansioneuropeadsectioneditioncnncommobilemobilewebeuropecvpContextexpansioncvpProfileexpansionfashionadsectioneditioncnncommobilemobilewebstylefashionfoodanddrinkadsectioneditioncnncommobilemobilewebtravelfoodanddrinkcvpContextexpansioncvpProfileexpansionfootballadsectioneditioncnncommobilemobilewebworldsportfootballcvpContextexpansioncvpProfileexpansiongeneraliframeadsectioneditioncnncommobilemobilewebmiscdefaultanalyticsjsmdNewAPIautostartfalseheight100typeiframewidth100generalnoadscvpAdPolicyContextadFreecvpContextexpansioncvpProfileexpansiongolfadsectioneditioncnncommobilemobilewebworldsportgolfcvpContextexpansioncvpProfileexpansionhealthadsectioneditioncnncommobilemobilewebhealthcvpContextexpansioncvpProfileexpansionhomepageadsectioneditioncnncommobilemobilewebhomepagecvpContextexpansioncvpProfileexpansionhotelsadsectioneditioncnncommobilemobilewebtravelhotelscvpContextexpansioncvpProfileexpansionjusticeadsectioneditioncnncommobilemobilewebjusticecvpContextexpansioncvpNetworkcnntestcvpProfileexpansionlivingadsectioneditioncnncommobilemobileweblivingcvpContextexpansioncvpNetworkcnntestcvpProfileexpansionluxuryadsectioneditioncnncommobilemobilewebstyleluxurymiddleeastadsectioneditioncnncommobilemobilewebmiddleeastcvpContextexpansioncvpProfileexpansionmotorsportadsectioneditioncnncommobilemobilewebworldsportcvpContextexpansioncvpProfileexpansionopinionadsectioneditioncnncommobilemobilewebopinioncvpContextexpansioncvpNetworkcnntestcvpProfileexpansionopinionsadsectioneditioncnncommobilemobilewebopinioncvpContextexpansioncvpNetworkcnntestcvpProfileexpansionpoliticsadsectioneditioncnncommobilemobilewebpoliticscvpContextexpansioncvpNetworkcnntestcvpProfileexpansionsailingadsectioneditioncnncommobilemobilewebmainsailcvpContextexpansioncvpProfileexpansionshowbizadsectioneditioncnncommobilemobilewebentertainmentcvpContextexpansioncvpProfileexpansionskiingadsectioneditioncnncommobilemobilewebalpineedgecvpContextexpansioncvpProfileexpansionspanishadsectioncnnespanolcnncommobilemobilewebspanishdefaultcvpContextexpansioncvpProfileexpansionspanishshowsadSectionOverrideKeysconstvideoleafcnnespanolcnncommobilemobilewebspanishshowsadsectioncnnespanolcnncommobilemobilewebspanishshowscvpContextexpansioncvpProfileexpansionspanishspecialsadSectionOverrideKeysconstvideoleafcnnespanolcnncommobilemobilewebspanishspecialsadsectioncnnespanolcnncommobilemobilewebspanishspecialscvpContextexpansioncvpProfileexpansionsportadsectioneditioncnncommobilemobilewebworldsportcvpContextexpansioncvpProfileexpansionsportsadsectioneditioncnncommobilemobilewebworldsportcvpContextexpansioncvpProfileexpansionstyleadsectioneditioncnncommobilemobilewebstyletechadsectioneditioncnncommobilemobilewebtechnologycvpContextexpansioncvpNetworkcnntestcvpProfileexpansiontechnologyadsectioneditioncnncommobilemobilewebtechnologycvpContextexpansioncvpNetworkcnntestcvpProfileexpansiontennisadsectioneditioncnncommobilemobilewebworldsporttenniscvpContextexpansioncvpProfileexpansiontraveladsectioneditioncnncommobilemobilewebtravelcvpContextexpansioncvpNetworkcnntestcvpProfileexpansiontvadsectioneditioncnncommobilemobilewebmaincvpContextexpansioncvpNetworkcnntestcvpProfileexpansiontveprevadsectioneditioncnncommobilemobilewebmainallowAutoPausefalseanalyticsnonecvpProfileexpansionheight169width300usadsectioneditioncnncommobilemobilewebuscvpContextexpansioncvpProfileexpansionvideolandingadsectioncommobilemobilewebmiscdefaultcvpContextexpansioncvpProfileexpansionvideosadsectioneditioncnncommobilemobilewebvideosectioncvpContextexpansioncvpNetworkcnntestcvpProfileexpansionwatchcnnadsectioneditioncnncommobilemobilewebmiscdefaultanalyticsjsmdTVEAPIcvpContextwatchcnncvpProfileexpansionworldadsectioneditioncnncommobilemobilewebworldcvpContextexpansioncvpNetworkcnntestcvpProfileexpansionworldsportadsectioneditioncnncommobilemobilewebworldsportcvpContextexpansioncvpProfileexpansiondefaultadsectioneditioncnncommobilemobilewebmiscdefault'
p1332
I1
sS'center'
p1333
I1
sS'photothumbnailhttpi2cdncnncomcnnnextdamassets160725105730freedomprojectphotodna2small11jpgdurationdescriptionlayouturivideosworld20160819cfpcanadaoutreachcnnheadlineElite'
p1334
I1
sS'fighting'
p1335
I1
sS'States'
p1336
I2
sS'preferenceUSInternationalConfirmHomeRegionsUSAfricaAmericasAsiaChinaEuropeMiddle'
p1337
I1
sS'Sprint'
p1338
I1
sS'contenders'
p1339
I1
sS'increasingly'
p1340
I1
sS'navigatorappVersionindexOfWP7'
p1341
I1
sS'tco'
p1342
I1
sS'Sunday'
p1343
I3
sS'Flynn'
p1344
I1
sS'Be'
p1345
I2
sS'wineditionadTargetsadkey'
p1346
I2
sS'ski'
p1347
I1
sS'match'
p1348
I1
sS'247nameInternationalBNsubTitleBreaking'
p1349
I1
sS'detailsdataset'
p1350
I1
sS'definitive'
p1351
I1
sS'government'
p1352
I1
sS'ClickTaleCreateDOMElementscriptscriptElementtype'
p1353
I1
sS'five'
p1354
I1
sS'boomrifasjssrc'
p1355
I1
sS'instructionsu003cagoSmartLinkhttpcnnitgohelpLinkhttpeditioncnncomhelppersistentCtacobrandingTextIn'
p1356
I2
sS'prominent'
p1357
I1
sS'loss'
p1358
I1
sS'England'
p1359
I1
sS'officelayouturivideospolitics20161122shoulddonaldtrumpdenouncealtrightchriscuomosotnewdaycnnheadlineTrump'
p1360
I1
sS'journalist'
p1361
I1
sS'lose'
p1362
I1
sS'withcountdownTextPreview'
p1363
I2
sS'prevention'
p1364
I1
sS'refugees'
p1365
I2
sS'page'
p1366
I1
sS'shed'
p1367
I1
sS'0tryCount'
p1368
I1
sS'twitter'
p1369
I1
sS'hair'
p1370
I1
sS'httpcdnclicktalenetscrSrc'
p1371
I1
sS'Editor'
p1372
I1
sS'choosing'
p1373
I1
sS'home'
p1374
I1
sS'doccreateElementNS'
p1375
I1
sS'Mike'
p1376
I1
sS'trueenableVideoExperienceUnification'
p1377
I1
sS'However'
p1378
I1
sS'analyticsjsmdNewAPImetadatacvpContextexpansioncvpProfileexpansionheight100iframeConfigiframeHosthttpeditioncnncomiframeHtmlelementwidgetvideovideoapihtmllatestiframeclienthtmlrelativeUrlHostslocalhostcnncom3000localhostnextcnncomlocalhostnextcnncom8080editiondevnextcnncomeditionenablenextcnncomeditionpoliticsnextcnncomeditionsweetnextcnncomeditionterranextcnncomeditionvideonextcnncomeditionetrainnextcnncomeditionstagenextcnncomeditionrefnextcnncomtypeembeddedwidth100CNNSocialConfig'
p1379
I1
sS'masked'
p1380
I1
sS'BOOMRsendBeaconiscomplete'
p1381
I1
sS'FootageCNN'
p1382
I1
sS'reaching'
p1383
I1
sS'Straight'
p1384
I1
sS'Up'
p1385
I1
sS'stellar'
p1386
I1
sS'host'
p1387
I2
sS'hostagethumbnailhttpi2cdncnncomcnnnextdamassets161122142728terrywaitesmall11jpgduration0207descriptionFormer'
p1388
I1
sS'wineditionadTargetsrefdom'
p1389
I6
sS'documentCNNINJECTORloadFeatureusabillafunction'
p1390
I1
sS'textjavascriptscrSrc'
p1391
I1
sS'rare'
p1392
I3
sS'US'
p1393
I7
sS'Americans'
p1394
I1
sS'UK'
p1395
I1
sS'Japan'
p1396
I2
sS'FIFAs'
p1397
I1
sS'windowperformancemarkoptimizelyStart'
p1398
I1
sS'travelers'
p1399
I1
sS'French'
p1400
I4
sS'Iraqi'
p1401
I1
sS'promise'
p1402
I1
sS'tiny'
p1403
I1
sS'Ivory'
p1404
I1
sS'otherCNNgetRefDom'
p1405
I1
sS'Hillary'
p1406
I1
sS'layouturi20161122worldjapantsunamitidalboreindexhtmlheadlineJapan'
p1407
I1
sS'biggest'
p1408
I1
sS'troubling'
p1409
I1
sS'Champions'
p1410
I1
sS'function'
p1411
I21
sS'north'
p1412
I1
sS'bossthumbnailhttpi2cdncnncomcnnnextdamassets161122174813brucearenateasesmall11jpgdurationdescriptionBruce'
p1413
I1
sS'bus'
p1414
I2
sS'WebMovies'
p1415
I2
sS'0if'
p1416
I1
sS'everybody\xe2\x80\x99s'
p1417
I1
sS'Africas'
p1418
I3
sS'breakthrough'
p1419
I1
sS'neoNazisthumbnailhttpi2cdncnncomcnnnextdamassets161122074929johnphillipssmall11jpgduration0118descriptionCNN'
p1420
I1
sS'record'
p1421
I2
sS'below'
p1422
I2
sS'NowdescriptionIt\xe2\x80\x99s'
p1423
I1
sS'stories'
p1424
I1
sS'minutes'
p1425
I1
sS'urging'
p1426
I1
sS'trueenableVisualRevenueVideo'
p1427
I1
sS'recognize'
p1428
I1
sS'universal'
p1429
I1
sS'pic'
p1430
I1
sS'true0script'
p1431
I1
sS'registryFile'
p1432
I2
sS'deadly'
p1433
I1
sS'44'
p1434
I1
sS'c1451080CNNCNNXStreamUrl'
p1435
I1
sS'claiming'
p1436
I1
sS'details'
p1437
I1
sS'subscribezoneNameContent'
p1438
I1
sS'star'
p1439
I1
sS'trueenableSafariPushAlerts'
p1440
I1
sS'PoliticsElection'
p1441
I2
sS'11Mthumbnailhttpi2cdncnncomcnnnextdamassets161115103431patekwatchtease2small11jpgdurationdescriptionlayouturi20161117travelsloveniatravelguideindexhtmlheadlineWhere'
p1442
I1
sS'stay'
p1443
I1
sS'South'
p1444
I1
sS'intlhomepage1zone1intlhomepage1zone2intlhomepage1zone3intlhomepage1zone4intlhomepage2zone1intlhomepage3zone1intlhomepage3zone3intlhomepage3zone4'
p1445
I1
sS'using'
p1446
I1
sS'Private'
p1447
I1
sS'launchthumbnailhttpi2cdncnncomcnnnextdamassets161110175941medogirlssmall11jpgdurationdescriptionTeenage'
p1448
I1
sS'Sleep'
p1449
I1
s.